; Listing generated by Microsoft (R) Optimizing Compiler Version 16.00.40219.01 

	TITLE	E:\SRI\straylight_repo\visualStudioWorkspace\zlib-1.2.6\deflate.c
	.686P
	.XMM
	include listing.inc
	.model	flat

INCLUDELIB LIBCMTD
INCLUDELIB OLDNAMES

PUBLIC	_deflate_copyright
CONST	SEGMENT
_deflate_copyright DB ' deflate 1.2.6 Copyright 1995-2012 Jean-loup Gaill'
	DB	'y and Mark Adler ', 00H
	ORG $+4
_configuration_table DW 00H
	DW	00H
	DW	00H
	DW	00H
	DD	FLAT:_deflate_stored
	DW	04H
	DW	04H
	DW	08H
	DW	04H
	DD	FLAT:_deflate_fast
	DW	04H
	DW	05H
	DW	010H
	DW	08H
	DD	FLAT:_deflate_fast
	DW	04H
	DW	06H
	DW	020H
	DW	020H
	DD	FLAT:_deflate_fast
	DW	04H
	DW	04H
	DW	010H
	DW	010H
	DD	FLAT:_deflate_slow
	DW	08H
	DW	010H
	DW	020H
	DW	020H
	DD	FLAT:_deflate_slow
	DW	08H
	DW	010H
	DW	080H
	DW	080H
	DD	FLAT:_deflate_slow
	DW	08H
	DW	020H
	DW	080H
	DW	0100H
	DD	FLAT:_deflate_slow
	DW	020H
	DW	080H
	DW	0102H
	DW	0400H
	DD	FLAT:_deflate_slow
	DW	020H
	DW	0102H
	DW	0102H
	DW	01000H
	DD	FLAT:_deflate_slow
?my_version@?1??deflateInit2_@@9@9 DB '1.2.6', 00H	; `deflateInit2_'::`2'::my_version
CONST	ENDS
PUBLIC	_deflateInit2_@32
PUBLIC	_deflateInit_@16
; Function compile flags: /Odtp /ZI
; File e:\sri\straylight_repo\visualstudioworkspace\zlib-1.2.6\deflate.c
;	COMDAT _deflateInit_@16
_TEXT	SEGMENT
_strm$ = 8						; size = 4
_level$ = 12						; size = 4
_version$ = 16						; size = 4
_stream_size$ = 20					; size = 4
_deflateInit_@16 PROC					; COMDAT

; 206  : {

	push	ebp
	mov	ebp, esp
	sub	esp, 64					; 00000040H
	push	ebx
	push	esi
	push	edi

; 207  :     return deflateInit2_(strm, level, Z_DEFLATED, MAX_WBITS, DEF_MEM_LEVEL,
; 208  :                          Z_DEFAULT_STRATEGY, version, stream_size);

	mov	eax, DWORD PTR _stream_size$[ebp]
	push	eax
	mov	ecx, DWORD PTR _version$[ebp]
	push	ecx
	push	0
	push	8
	push	15					; 0000000fH
	push	8
	mov	edx, DWORD PTR _level$[ebp]
	push	edx
	mov	eax, DWORD PTR _strm$[ebp]
	push	eax
	call	_deflateInit2_@32

; 209  :     /* To do: ignore strm->next_in if we use it as window */
; 210  : }

	pop	edi
	pop	esi
	pop	ebx
	mov	esp, ebp
	pop	ebp
	ret	16					; 00000010H
_deflateInit_@16 ENDP
_TEXT	ENDS
PUBLIC	_deflateReset@4
PUBLIC	_deflateEnd@4
EXTRN	_z_errmsg:BYTE
EXTRN	_zcfree:PROC
EXTRN	_zcalloc:PROC
; Function compile flags: /Odtp /ZI
;	COMDAT _deflateInit2_@32
_TEXT	SEGMENT
_overlay$ = -12						; size = 4
_wrap$ = -8						; size = 4
_s$ = -4						; size = 4
_strm$ = 8						; size = 4
_level$ = 12						; size = 4
_method$ = 16						; size = 4
_windowBits$ = 20					; size = 4
_memLevel$ = 24						; size = 4
_strategy$ = 28						; size = 4
_version$ = 32						; size = 4
_stream_size$ = 36					; size = 4
_deflateInit2_@32 PROC					; COMDAT

; 223  : {

	push	ebp
	mov	ebp, esp
	sub	esp, 76					; 0000004cH
	push	ebx
	push	esi
	push	edi

; 224  :     deflate_state *s;
; 225  :     int wrap = 1;

	mov	DWORD PTR _wrap$[ebp], 1

; 226  :     static const char my_version[] = ZLIB_VERSION;
; 227  : 
; 228  :     ushf *overlay;
; 229  :     /* We overlay pending_buf and d_buf+l_buf. This works since the average
; 230  :      * output size for (length,distance) codes is <= 24 bits.
; 231  :      */
; 232  : 
; 233  :     if (version == Z_NULL || version[0] != my_version[0] ||
; 234  :         stream_size != sizeof(z_stream)) {

	cmp	DWORD PTR _version$[ebp], 0
	je	SHORT $LN14@deflateIni
	mov	eax, DWORD PTR _version$[ebp]
	movsx	ecx, BYTE PTR [eax]
	movsx	edx, BYTE PTR ?my_version@?1??deflateInit2_@@9@9
	cmp	ecx, edx
	jne	SHORT $LN14@deflateIni
	cmp	DWORD PTR _stream_size$[ebp], 56	; 00000038H
	je	SHORT $LN15@deflateIni
$LN14@deflateIni:

; 235  :         return Z_VERSION_ERROR;

	mov	eax, -6					; fffffffaH
	jmp	$LN16@deflateIni
$LN15@deflateIni:

; 236  :     }
; 237  :     if (strm == Z_NULL) return Z_STREAM_ERROR;

	cmp	DWORD PTR _strm$[ebp], 0
	jne	SHORT $LN13@deflateIni
	mov	eax, -2					; fffffffeH
	jmp	$LN16@deflateIni
$LN13@deflateIni:

; 238  : 
; 239  :     strm->msg = Z_NULL;

	mov	eax, DWORD PTR _strm$[ebp]
	mov	DWORD PTR [eax+24], 0

; 240  :     if (strm->zalloc == (alloc_func)0) {

	mov	eax, DWORD PTR _strm$[ebp]
	cmp	DWORD PTR [eax+32], 0
	jne	SHORT $LN12@deflateIni

; 241  : #ifdef Z_SOLO
; 242  :         return Z_STREAM_ERROR;
; 243  : #else
; 244  :         strm->zalloc = zcalloc;

	mov	eax, DWORD PTR _strm$[ebp]
	mov	DWORD PTR [eax+32], OFFSET _zcalloc

; 245  :         strm->opaque = (voidpf)0;

	mov	eax, DWORD PTR _strm$[ebp]
	mov	DWORD PTR [eax+40], 0
$LN12@deflateIni:

; 246  : #endif
; 247  :     }
; 248  :     if (strm->zfree == (free_func)0)

	mov	eax, DWORD PTR _strm$[ebp]
	cmp	DWORD PTR [eax+36], 0
	jne	SHORT $LN11@deflateIni

; 249  : #ifdef Z_SOLO
; 250  :         return Z_STREAM_ERROR;
; 251  : #else
; 252  :         strm->zfree = zcfree;

	mov	eax, DWORD PTR _strm$[ebp]
	mov	DWORD PTR [eax+36], OFFSET _zcfree
$LN11@deflateIni:

; 253  : #endif
; 254  : 
; 255  : #ifdef FASTEST
; 256  :     if (level != 0) level = 1;
; 257  : #else
; 258  :     if (level == Z_DEFAULT_COMPRESSION) level = 6;

	cmp	DWORD PTR _level$[ebp], -1
	jne	SHORT $LN10@deflateIni
	mov	DWORD PTR _level$[ebp], 6
$LN10@deflateIni:

; 259  : #endif
; 260  : 
; 261  :     if (windowBits < 0) { /* suppress zlib wrapper */

	cmp	DWORD PTR _windowBits$[ebp], 0
	jge	SHORT $LN9@deflateIni

; 262  :         wrap = 0;

	mov	DWORD PTR _wrap$[ebp], 0

; 263  :         windowBits = -windowBits;

	mov	eax, DWORD PTR _windowBits$[ebp]
	neg	eax
	mov	DWORD PTR _windowBits$[ebp], eax
	jmp	SHORT $LN8@deflateIni
$LN9@deflateIni:

; 264  :     }
; 265  : #ifdef GZIP
; 266  :     else if (windowBits > 15) {

	cmp	DWORD PTR _windowBits$[ebp], 15		; 0000000fH
	jle	SHORT $LN8@deflateIni

; 267  :         wrap = 2;       /* write gzip wrapper instead */

	mov	DWORD PTR _wrap$[ebp], 2

; 268  :         windowBits -= 16;

	mov	eax, DWORD PTR _windowBits$[ebp]
	sub	eax, 16					; 00000010H
	mov	DWORD PTR _windowBits$[ebp], eax
$LN8@deflateIni:

; 269  :     }
; 270  : #endif
; 271  :     if (memLevel < 1 || memLevel > MAX_MEM_LEVEL || method != Z_DEFLATED ||
; 272  :         windowBits < 8 || windowBits > 15 || level < 0 || level > 9 ||
; 273  :         strategy < 0 || strategy > Z_FIXED) {

	cmp	DWORD PTR _memLevel$[ebp], 1
	jl	SHORT $LN5@deflateIni
	cmp	DWORD PTR _memLevel$[ebp], 9
	jg	SHORT $LN5@deflateIni
	cmp	DWORD PTR _method$[ebp], 8
	jne	SHORT $LN5@deflateIni
	cmp	DWORD PTR _windowBits$[ebp], 8
	jl	SHORT $LN5@deflateIni
	cmp	DWORD PTR _windowBits$[ebp], 15		; 0000000fH
	jg	SHORT $LN5@deflateIni
	cmp	DWORD PTR _level$[ebp], 0
	jl	SHORT $LN5@deflateIni
	cmp	DWORD PTR _level$[ebp], 9
	jg	SHORT $LN5@deflateIni
	cmp	DWORD PTR _strategy$[ebp], 0
	jl	SHORT $LN5@deflateIni
	cmp	DWORD PTR _strategy$[ebp], 4
	jle	SHORT $LN6@deflateIni
$LN5@deflateIni:

; 274  :         return Z_STREAM_ERROR;

	mov	eax, -2					; fffffffeH
	jmp	$LN16@deflateIni
$LN6@deflateIni:

; 275  :     }
; 276  :     if (windowBits == 8) windowBits = 9;  /* until 256-byte window bug fixed */

	cmp	DWORD PTR _windowBits$[ebp], 8
	jne	SHORT $LN4@deflateIni
	mov	DWORD PTR _windowBits$[ebp], 9
$LN4@deflateIni:

; 277  :     s = (deflate_state *) ZALLOC(strm, 1, sizeof(deflate_state));

	push	5828					; 000016c4H
	push	1
	mov	eax, DWORD PTR _strm$[ebp]
	mov	ecx, DWORD PTR [eax+40]
	push	ecx
	mov	edx, DWORD PTR _strm$[ebp]
	mov	eax, DWORD PTR [edx+32]
	call	eax
	add	esp, 12					; 0000000cH
	mov	DWORD PTR _s$[ebp], eax

; 278  :     if (s == Z_NULL) return Z_MEM_ERROR;

	cmp	DWORD PTR _s$[ebp], 0
	jne	SHORT $LN3@deflateIni
	mov	eax, -4					; fffffffcH
	jmp	$LN16@deflateIni
$LN3@deflateIni:

; 279  :     strm->state = (struct internal_state FAR *)s;

	mov	eax, DWORD PTR _strm$[ebp]
	mov	ecx, DWORD PTR _s$[ebp]
	mov	DWORD PTR [eax+28], ecx

; 280  :     s->strm = strm;

	mov	eax, DWORD PTR _s$[ebp]
	mov	ecx, DWORD PTR _strm$[ebp]
	mov	DWORD PTR [eax], ecx

; 281  : 
; 282  :     s->wrap = wrap;

	mov	eax, DWORD PTR _s$[ebp]
	mov	ecx, DWORD PTR _wrap$[ebp]
	mov	DWORD PTR [eax+24], ecx

; 283  :     s->gzhead = Z_NULL;

	mov	eax, DWORD PTR _s$[ebp]
	mov	DWORD PTR [eax+28], 0

; 284  :     s->w_bits = windowBits;

	mov	eax, DWORD PTR _s$[ebp]
	mov	ecx, DWORD PTR _windowBits$[ebp]
	mov	DWORD PTR [eax+48], ecx

; 285  :     s->w_size = 1 << s->w_bits;

	mov	eax, DWORD PTR _s$[ebp]
	mov	edx, 1
	mov	ecx, DWORD PTR [eax+48]
	shl	edx, cl
	mov	eax, DWORD PTR _s$[ebp]
	mov	DWORD PTR [eax+44], edx

; 286  :     s->w_mask = s->w_size - 1;

	mov	eax, DWORD PTR _s$[ebp]
	mov	ecx, DWORD PTR [eax+44]
	sub	ecx, 1
	mov	edx, DWORD PTR _s$[ebp]
	mov	DWORD PTR [edx+52], ecx

; 287  : 
; 288  :     s->hash_bits = memLevel + 7;

	mov	eax, DWORD PTR _memLevel$[ebp]
	add	eax, 7
	mov	ecx, DWORD PTR _s$[ebp]
	mov	DWORD PTR [ecx+80], eax

; 289  :     s->hash_size = 1 << s->hash_bits;

	mov	eax, DWORD PTR _s$[ebp]
	mov	edx, 1
	mov	ecx, DWORD PTR [eax+80]
	shl	edx, cl
	mov	eax, DWORD PTR _s$[ebp]
	mov	DWORD PTR [eax+76], edx

; 290  :     s->hash_mask = s->hash_size - 1;

	mov	eax, DWORD PTR _s$[ebp]
	mov	ecx, DWORD PTR [eax+76]
	sub	ecx, 1
	mov	edx, DWORD PTR _s$[ebp]
	mov	DWORD PTR [edx+84], ecx

; 291  :     s->hash_shift =  ((s->hash_bits+MIN_MATCH-1)/MIN_MATCH);

	mov	eax, DWORD PTR _s$[ebp]
	mov	eax, DWORD PTR [eax+80]
	add	eax, 2
	xor	edx, edx
	mov	ecx, 3
	div	ecx
	mov	edx, DWORD PTR _s$[ebp]
	mov	DWORD PTR [edx+88], eax

; 292  : 
; 293  :     s->window = (Bytef *) ZALLOC(strm, s->w_size, 2*sizeof(Byte));

	push	2
	mov	eax, DWORD PTR _s$[ebp]
	mov	ecx, DWORD PTR [eax+44]
	push	ecx
	mov	edx, DWORD PTR _strm$[ebp]
	mov	eax, DWORD PTR [edx+40]
	push	eax
	mov	ecx, DWORD PTR _strm$[ebp]
	mov	edx, DWORD PTR [ecx+32]
	call	edx
	add	esp, 12					; 0000000cH
	mov	ecx, DWORD PTR _s$[ebp]
	mov	DWORD PTR [ecx+56], eax

; 294  :     s->prev   = (Posf *)  ZALLOC(strm, s->w_size, sizeof(Pos));

	push	2
	mov	eax, DWORD PTR _s$[ebp]
	mov	ecx, DWORD PTR [eax+44]
	push	ecx
	mov	edx, DWORD PTR _strm$[ebp]
	mov	eax, DWORD PTR [edx+40]
	push	eax
	mov	ecx, DWORD PTR _strm$[ebp]
	mov	edx, DWORD PTR [ecx+32]
	call	edx
	add	esp, 12					; 0000000cH
	mov	ecx, DWORD PTR _s$[ebp]
	mov	DWORD PTR [ecx+64], eax

; 295  :     s->head   = (Posf *)  ZALLOC(strm, s->hash_size, sizeof(Pos));

	push	2
	mov	eax, DWORD PTR _s$[ebp]
	mov	ecx, DWORD PTR [eax+76]
	push	ecx
	mov	edx, DWORD PTR _strm$[ebp]
	mov	eax, DWORD PTR [edx+40]
	push	eax
	mov	ecx, DWORD PTR _strm$[ebp]
	mov	edx, DWORD PTR [ecx+32]
	call	edx
	add	esp, 12					; 0000000cH
	mov	ecx, DWORD PTR _s$[ebp]
	mov	DWORD PTR [ecx+68], eax

; 296  : 
; 297  :     s->high_water = 0;      /* nothing written to s->window yet */

	mov	eax, DWORD PTR _s$[ebp]
	mov	DWORD PTR [eax+5824], 0

; 298  : 
; 299  :     s->lit_bufsize = 1 << (memLevel + 6); /* 16K elements by default */

	mov	ecx, DWORD PTR _memLevel$[ebp]
	add	ecx, 6
	mov	eax, 1
	shl	eax, cl
	mov	ecx, DWORD PTR _s$[ebp]
	mov	DWORD PTR [ecx+5788], eax

; 300  : 
; 301  :     overlay = (ushf *) ZALLOC(strm, s->lit_bufsize, sizeof(ush)+2);

	push	4
	mov	eax, DWORD PTR _s$[ebp]
	mov	ecx, DWORD PTR [eax+5788]
	push	ecx
	mov	edx, DWORD PTR _strm$[ebp]
	mov	eax, DWORD PTR [edx+40]
	push	eax
	mov	ecx, DWORD PTR _strm$[ebp]
	mov	edx, DWORD PTR [ecx+32]
	call	edx
	add	esp, 12					; 0000000cH
	mov	DWORD PTR _overlay$[ebp], eax

; 302  :     s->pending_buf = (uchf *) overlay;

	mov	eax, DWORD PTR _s$[ebp]
	mov	ecx, DWORD PTR _overlay$[ebp]
	mov	DWORD PTR [eax+8], ecx

; 303  :     s->pending_buf_size = (ulg)s->lit_bufsize * (sizeof(ush)+2L);

	mov	eax, DWORD PTR _s$[ebp]
	mov	ecx, DWORD PTR [eax+5788]
	shl	ecx, 2
	mov	edx, DWORD PTR _s$[ebp]
	mov	DWORD PTR [edx+12], ecx

; 304  : 
; 305  :     if (s->window == Z_NULL || s->prev == Z_NULL || s->head == Z_NULL ||
; 306  :         s->pending_buf == Z_NULL) {

	mov	eax, DWORD PTR _s$[ebp]
	cmp	DWORD PTR [eax+56], 0
	je	SHORT $LN1@deflateIni
	mov	eax, DWORD PTR _s$[ebp]
	cmp	DWORD PTR [eax+64], 0
	je	SHORT $LN1@deflateIni
	mov	eax, DWORD PTR _s$[ebp]
	cmp	DWORD PTR [eax+68], 0
	je	SHORT $LN1@deflateIni
	mov	eax, DWORD PTR _s$[ebp]
	cmp	DWORD PTR [eax+8], 0
	jne	SHORT $LN2@deflateIni
$LN1@deflateIni:

; 307  :         s->status = FINISH_STATE;

	mov	eax, DWORD PTR _s$[ebp]
	mov	DWORD PTR [eax+4], 666			; 0000029aH

; 308  :         strm->msg = (char*)ERR_MSG(Z_MEM_ERROR);

	mov	eax, DWORD PTR _strm$[ebp]
	mov	ecx, DWORD PTR _z_errmsg+24
	mov	DWORD PTR [eax+24], ecx

; 309  :         deflateEnd (strm);

	mov	eax, DWORD PTR _strm$[ebp]
	push	eax
	call	_deflateEnd@4

; 310  :         return Z_MEM_ERROR;

	mov	eax, -4					; fffffffcH
	jmp	SHORT $LN16@deflateIni
$LN2@deflateIni:

; 311  :     }
; 312  :     s->d_buf = overlay + s->lit_bufsize/sizeof(ush);

	mov	eax, DWORD PTR _s$[ebp]
	mov	ecx, DWORD PTR [eax+5788]
	shr	ecx, 1
	mov	edx, DWORD PTR _overlay$[ebp]
	lea	eax, DWORD PTR [edx+ecx*2]
	mov	ecx, DWORD PTR _s$[ebp]
	mov	DWORD PTR [ecx+5796], eax

; 313  :     s->l_buf = s->pending_buf + (1+sizeof(ush))*s->lit_bufsize;

	mov	eax, DWORD PTR _s$[ebp]
	mov	ecx, DWORD PTR [eax+5788]
	imul	ecx, 3
	mov	edx, DWORD PTR _s$[ebp]
	add	ecx, DWORD PTR [edx+8]
	mov	eax, DWORD PTR _s$[ebp]
	mov	DWORD PTR [eax+5784], ecx

; 314  : 
; 315  :     s->level = level;

	mov	eax, DWORD PTR _s$[ebp]
	mov	ecx, DWORD PTR _level$[ebp]
	mov	DWORD PTR [eax+132], ecx

; 316  :     s->strategy = strategy;

	mov	eax, DWORD PTR _s$[ebp]
	mov	ecx, DWORD PTR _strategy$[ebp]
	mov	DWORD PTR [eax+136], ecx

; 317  :     s->method = (Byte)method;

	mov	eax, DWORD PTR _s$[ebp]
	mov	cl, BYTE PTR _method$[ebp]
	mov	BYTE PTR [eax+36], cl

; 318  : 
; 319  :     return deflateReset(strm);

	mov	eax, DWORD PTR _strm$[ebp]
	push	eax
	call	_deflateReset@4
$LN16@deflateIni:

; 320  : }

	pop	edi
	pop	esi
	pop	ebx
	mov	esp, ebp
	pop	ebp
	ret	32					; 00000020H
_deflateInit2_@32 ENDP
_TEXT	ENDS
PUBLIC	_deflateSetDictionary@12
EXTRN	_memset:PROC
EXTRN	_adler32@12:PROC
; Function compile flags: /Odtp /ZI
;	COMDAT _deflateSetDictionary@12
_TEXT	SEGMENT
_next$ = -24						; size = 4
_avail$ = -20						; size = 4
_wrap$ = -16						; size = 4
_n$ = -12						; size = 4
_str$ = -8						; size = 4
_s$ = -4						; size = 4
_strm$ = 8						; size = 4
_dictionary$ = 12					; size = 4
_dictLength$ = 16					; size = 4
_deflateSetDictionary@12 PROC				; COMDAT

; 327  : {

	push	ebp
	mov	ebp, esp
	sub	esp, 88					; 00000058H
	push	ebx
	push	esi
	push	edi

; 328  :     deflate_state *s;
; 329  :     uInt str, n;
; 330  :     int wrap;
; 331  :     unsigned avail;
; 332  :     unsigned char *next;
; 333  : 
; 334  :     if (strm == Z_NULL || strm->state == Z_NULL || dictionary == Z_NULL)

	cmp	DWORD PTR _strm$[ebp], 0
	je	SHORT $LN12@deflateSet
	mov	eax, DWORD PTR _strm$[ebp]
	cmp	DWORD PTR [eax+28], 0
	je	SHORT $LN12@deflateSet
	cmp	DWORD PTR _dictionary$[ebp], 0
	jne	SHORT $LN13@deflateSet
$LN12@deflateSet:

; 335  :         return Z_STREAM_ERROR;

	mov	eax, -2					; fffffffeH
	jmp	$LN14@deflateSet
$LN13@deflateSet:

; 336  :     s = strm->state;

	mov	eax, DWORD PTR _strm$[ebp]
	mov	ecx, DWORD PTR [eax+28]
	mov	DWORD PTR _s$[ebp], ecx

; 337  :     wrap = s->wrap;

	mov	eax, DWORD PTR _s$[ebp]
	mov	ecx, DWORD PTR [eax+24]
	mov	DWORD PTR _wrap$[ebp], ecx

; 338  :     if (wrap == 2 || (wrap == 1 && s->status != INIT_STATE) || s->lookahead)

	cmp	DWORD PTR _wrap$[ebp], 2
	je	SHORT $LN10@deflateSet
	cmp	DWORD PTR _wrap$[ebp], 1
	jne	SHORT $LN9@deflateSet
	mov	eax, DWORD PTR _s$[ebp]
	cmp	DWORD PTR [eax+4], 42			; 0000002aH
	jne	SHORT $LN10@deflateSet
$LN9@deflateSet:
	mov	eax, DWORD PTR _s$[ebp]
	cmp	DWORD PTR [eax+116], 0
	je	SHORT $LN11@deflateSet
$LN10@deflateSet:

; 339  :         return Z_STREAM_ERROR;

	mov	eax, -2					; fffffffeH
	jmp	$LN14@deflateSet
$LN11@deflateSet:

; 340  : 
; 341  :     /* when using zlib wrappers, compute Adler-32 for provided dictionary */
; 342  :     if (wrap == 1)

	cmp	DWORD PTR _wrap$[ebp], 1
	jne	SHORT $LN8@deflateSet

; 343  :         strm->adler = adler32(strm->adler, dictionary, dictLength);

	mov	eax, DWORD PTR _dictLength$[ebp]
	push	eax
	mov	ecx, DWORD PTR _dictionary$[ebp]
	push	ecx
	mov	edx, DWORD PTR _strm$[ebp]
	mov	eax, DWORD PTR [edx+48]
	push	eax
	call	_adler32@12
	mov	ecx, DWORD PTR _strm$[ebp]
	mov	DWORD PTR [ecx+48], eax
$LN8@deflateSet:

; 344  :     s->wrap = 0;                    /* avoid computing Adler-32 in read_buf */

	mov	eax, DWORD PTR _s$[ebp]
	mov	DWORD PTR [eax+24], 0

; 345  : 
; 346  :     /* if dictionary would fill window, just replace the history */
; 347  :     if (dictLength >= s->w_size) {

	mov	eax, DWORD PTR _s$[ebp]
	mov	ecx, DWORD PTR _dictLength$[ebp]
	cmp	ecx, DWORD PTR [eax+44]
	jb	SHORT $LN7@deflateSet

; 348  :         if (wrap == 0) {            /* already empty otherwise */

	cmp	DWORD PTR _wrap$[ebp], 0
	jne	SHORT $LN6@deflateSet

; 349  :             CLEAR_HASH(s);

	mov	eax, DWORD PTR _s$[ebp]
	mov	ecx, DWORD PTR [eax+76]
	mov	edx, DWORD PTR _s$[ebp]
	mov	eax, DWORD PTR [edx+68]
	xor	edx, edx
	mov	WORD PTR [eax+ecx*2-2], dx
	mov	eax, DWORD PTR _s$[ebp]
	mov	ecx, DWORD PTR [eax+76]
	lea	edx, DWORD PTR [ecx+ecx-2]
	push	edx
	push	0
	mov	eax, DWORD PTR _s$[ebp]
	mov	ecx, DWORD PTR [eax+68]
	push	ecx
	call	_memset
	add	esp, 12					; 0000000cH

; 350  :             s->strstart = 0;

	mov	eax, DWORD PTR _s$[ebp]
	mov	DWORD PTR [eax+108], 0

; 351  :             s->block_start = 0L;

	mov	eax, DWORD PTR _s$[ebp]
	mov	DWORD PTR [eax+92], 0

; 352  :             s->insert = 0;

	mov	eax, DWORD PTR _s$[ebp]
	mov	DWORD PTR [eax+5812], 0
$LN6@deflateSet:

; 353  :         }
; 354  :         dictionary += dictLength - s->w_size;  /* use the tail */

	mov	eax, DWORD PTR _s$[ebp]
	mov	ecx, DWORD PTR _dictLength$[ebp]
	sub	ecx, DWORD PTR [eax+44]
	add	ecx, DWORD PTR _dictionary$[ebp]
	mov	DWORD PTR _dictionary$[ebp], ecx

; 355  :         dictLength = s->w_size;

	mov	eax, DWORD PTR _s$[ebp]
	mov	ecx, DWORD PTR [eax+44]
	mov	DWORD PTR _dictLength$[ebp], ecx
$LN7@deflateSet:

; 356  :     }
; 357  : 
; 358  :     /* insert dictionary into window and hash */
; 359  :     avail = strm->avail_in;

	mov	eax, DWORD PTR _strm$[ebp]
	mov	ecx, DWORD PTR [eax+4]
	mov	DWORD PTR _avail$[ebp], ecx

; 360  :     next = strm->next_in;

	mov	eax, DWORD PTR _strm$[ebp]
	mov	ecx, DWORD PTR [eax]
	mov	DWORD PTR _next$[ebp], ecx

; 361  :     strm->avail_in = dictLength;

	mov	eax, DWORD PTR _strm$[ebp]
	mov	ecx, DWORD PTR _dictLength$[ebp]
	mov	DWORD PTR [eax+4], ecx

; 362  :     strm->next_in = (Bytef *)dictionary;

	mov	eax, DWORD PTR _strm$[ebp]
	mov	ecx, DWORD PTR _dictionary$[ebp]
	mov	DWORD PTR [eax], ecx

; 363  :     fill_window(s);

	mov	eax, DWORD PTR _s$[ebp]
	push	eax
	call	_fill_window
	add	esp, 4
$LN5@deflateSet:

; 364  :     while (s->lookahead >= MIN_MATCH) {

	mov	eax, DWORD PTR _s$[ebp]
	cmp	DWORD PTR [eax+116], 3
	jb	$LN4@deflateSet

; 365  :         str = s->strstart;

	mov	eax, DWORD PTR _s$[ebp]
	mov	ecx, DWORD PTR [eax+108]
	mov	DWORD PTR _str$[ebp], ecx

; 366  :         n = s->lookahead - (MIN_MATCH-1);

	mov	eax, DWORD PTR _s$[ebp]
	mov	ecx, DWORD PTR [eax+116]
	sub	ecx, 2
	mov	DWORD PTR _n$[ebp], ecx
$LN3@deflateSet:

; 367  :         do {
; 368  :             UPDATE_HASH(s, s->ins_h, s->window[str + MIN_MATCH-1]);

	mov	eax, DWORD PTR _s$[ebp]
	mov	ecx, DWORD PTR _s$[ebp]
	mov	edx, DWORD PTR [eax+72]
	mov	ecx, DWORD PTR [ecx+88]
	shl	edx, cl
	mov	eax, DWORD PTR _s$[ebp]
	mov	ecx, DWORD PTR [eax+56]
	mov	eax, DWORD PTR _str$[ebp]
	movzx	ecx, BYTE PTR [ecx+eax+2]
	xor	edx, ecx
	mov	eax, DWORD PTR _s$[ebp]
	and	edx, DWORD PTR [eax+84]
	mov	ecx, DWORD PTR _s$[ebp]
	mov	DWORD PTR [ecx+72], edx

; 369  : #ifndef FASTEST
; 370  :             s->prev[str & s->w_mask] = s->head[s->ins_h];

	mov	eax, DWORD PTR _s$[ebp]
	mov	ecx, DWORD PTR [eax+72]
	mov	edx, DWORD PTR _s$[ebp]
	mov	eax, DWORD PTR [edx+68]
	mov	edx, DWORD PTR _s$[ebp]
	mov	esi, DWORD PTR _str$[ebp]
	and	esi, DWORD PTR [edx+52]
	mov	edx, DWORD PTR _s$[ebp]
	mov	edx, DWORD PTR [edx+64]
	mov	ax, WORD PTR [eax+ecx*2]
	mov	WORD PTR [edx+esi*2], ax

; 371  : #endif
; 372  :             s->head[s->ins_h] = (Pos)str;

	mov	eax, DWORD PTR _s$[ebp]
	mov	ecx, DWORD PTR [eax+72]
	mov	edx, DWORD PTR _s$[ebp]
	mov	eax, DWORD PTR [edx+68]
	mov	dx, WORD PTR _str$[ebp]
	mov	WORD PTR [eax+ecx*2], dx

; 373  :             str++;

	mov	eax, DWORD PTR _str$[ebp]
	add	eax, 1
	mov	DWORD PTR _str$[ebp], eax

; 374  :         } while (--n);

	mov	eax, DWORD PTR _n$[ebp]
	sub	eax, 1
	mov	DWORD PTR _n$[ebp], eax
	jne	SHORT $LN3@deflateSet

; 375  :         s->strstart = str;

	mov	eax, DWORD PTR _s$[ebp]
	mov	ecx, DWORD PTR _str$[ebp]
	mov	DWORD PTR [eax+108], ecx

; 376  :         s->lookahead = MIN_MATCH-1;

	mov	eax, DWORD PTR _s$[ebp]
	mov	DWORD PTR [eax+116], 2

; 377  :         fill_window(s);

	mov	eax, DWORD PTR _s$[ebp]
	push	eax
	call	_fill_window
	add	esp, 4

; 378  :     }

	jmp	$LN5@deflateSet
$LN4@deflateSet:

; 379  :     s->strstart += s->lookahead;

	mov	eax, DWORD PTR _s$[ebp]
	mov	ecx, DWORD PTR [eax+108]
	mov	edx, DWORD PTR _s$[ebp]
	add	ecx, DWORD PTR [edx+116]
	mov	eax, DWORD PTR _s$[ebp]
	mov	DWORD PTR [eax+108], ecx

; 380  :     s->block_start = (long)s->strstart;

	mov	eax, DWORD PTR _s$[ebp]
	mov	ecx, DWORD PTR _s$[ebp]
	mov	edx, DWORD PTR [ecx+108]
	mov	DWORD PTR [eax+92], edx

; 381  :     s->insert = s->lookahead;

	mov	eax, DWORD PTR _s$[ebp]
	mov	ecx, DWORD PTR _s$[ebp]
	mov	edx, DWORD PTR [ecx+116]
	mov	DWORD PTR [eax+5812], edx

; 382  :     s->lookahead = 0;

	mov	eax, DWORD PTR _s$[ebp]
	mov	DWORD PTR [eax+116], 0

; 383  :     s->match_length = s->prev_length = MIN_MATCH-1;

	mov	eax, DWORD PTR _s$[ebp]
	mov	DWORD PTR [eax+120], 2
	mov	ecx, DWORD PTR _s$[ebp]
	mov	DWORD PTR [ecx+96], 2

; 384  :     s->match_available = 0;

	mov	eax, DWORD PTR _s$[ebp]
	mov	DWORD PTR [eax+104], 0

; 385  :     strm->next_in = next;

	mov	eax, DWORD PTR _strm$[ebp]
	mov	ecx, DWORD PTR _next$[ebp]
	mov	DWORD PTR [eax], ecx

; 386  :     strm->avail_in = avail;

	mov	eax, DWORD PTR _strm$[ebp]
	mov	ecx, DWORD PTR _avail$[ebp]
	mov	DWORD PTR [eax+4], ecx

; 387  :     s->wrap = wrap;

	mov	eax, DWORD PTR _s$[ebp]
	mov	ecx, DWORD PTR _wrap$[ebp]
	mov	DWORD PTR [eax+24], ecx

; 388  :     return Z_OK;

	xor	eax, eax
$LN14@deflateSet:

; 389  : }

	pop	edi
	pop	esi
	pop	ebx
	mov	esp, ebp
	pop	ebp
	ret	12					; 0000000cH
_deflateSetDictionary@12 ENDP
_TEXT	ENDS
PUBLIC	_deflateResetKeep@4
EXTRN	__tr_init:PROC
EXTRN	_crc32@12:PROC
; Function compile flags: /Odtp /ZI
;	COMDAT _deflateResetKeep@4
_TEXT	SEGMENT
tv131 = -72						; size = 4
_s$ = -4						; size = 4
_strm$ = 8						; size = 4
_deflateResetKeep@4 PROC				; COMDAT

; 394  : {

	push	ebp
	mov	ebp, esp
	sub	esp, 72					; 00000048H
	push	ebx
	push	esi
	push	edi

; 395  :     deflate_state *s;
; 396  : 
; 397  :     if (strm == Z_NULL || strm->state == Z_NULL ||
; 398  :         strm->zalloc == (alloc_func)0 || strm->zfree == (free_func)0) {

	cmp	DWORD PTR _strm$[ebp], 0
	je	SHORT $LN2@deflateRes
	mov	eax, DWORD PTR _strm$[ebp]
	cmp	DWORD PTR [eax+28], 0
	je	SHORT $LN2@deflateRes
	mov	eax, DWORD PTR _strm$[ebp]
	cmp	DWORD PTR [eax+32], 0
	je	SHORT $LN2@deflateRes
	mov	eax, DWORD PTR _strm$[ebp]
	cmp	DWORD PTR [eax+36], 0
	jne	SHORT $LN3@deflateRes
$LN2@deflateRes:

; 399  :         return Z_STREAM_ERROR;

	mov	eax, -2					; fffffffeH
	jmp	$LN4@deflateRes
$LN3@deflateRes:

; 400  :     }
; 401  : 
; 402  :     strm->total_in = strm->total_out = 0;

	mov	eax, DWORD PTR _strm$[ebp]
	mov	DWORD PTR [eax+20], 0
	mov	ecx, DWORD PTR _strm$[ebp]
	mov	DWORD PTR [ecx+8], 0

; 403  :     strm->msg = Z_NULL; /* use zfree if we ever allocate msg dynamically */

	mov	eax, DWORD PTR _strm$[ebp]
	mov	DWORD PTR [eax+24], 0

; 404  :     strm->data_type = Z_UNKNOWN;

	mov	eax, DWORD PTR _strm$[ebp]
	mov	DWORD PTR [eax+44], 2

; 405  : 
; 406  :     s = (deflate_state *)strm->state;

	mov	eax, DWORD PTR _strm$[ebp]
	mov	ecx, DWORD PTR [eax+28]
	mov	DWORD PTR _s$[ebp], ecx

; 407  :     s->pending = 0;

	mov	eax, DWORD PTR _s$[ebp]
	mov	DWORD PTR [eax+20], 0

; 408  :     s->pending_out = s->pending_buf;

	mov	eax, DWORD PTR _s$[ebp]
	mov	ecx, DWORD PTR _s$[ebp]
	mov	edx, DWORD PTR [ecx+8]
	mov	DWORD PTR [eax+16], edx

; 409  : 
; 410  :     if (s->wrap < 0) {

	mov	eax, DWORD PTR _s$[ebp]
	cmp	DWORD PTR [eax+24], 0
	jge	SHORT $LN1@deflateRes

; 411  :         s->wrap = -s->wrap; /* was made negative by deflate(..., Z_FINISH); */

	mov	eax, DWORD PTR _s$[ebp]
	mov	ecx, DWORD PTR [eax+24]
	neg	ecx
	mov	edx, DWORD PTR _s$[ebp]
	mov	DWORD PTR [edx+24], ecx
$LN1@deflateRes:

; 412  :     }
; 413  :     s->status = s->wrap ? INIT_STATE : BUSY_STATE;

	mov	eax, DWORD PTR _s$[ebp]
	mov	ecx, DWORD PTR [eax+24]
	neg	ecx
	sbb	ecx, ecx
	and	ecx, -71				; ffffffb9H
	add	ecx, 113				; 00000071H
	mov	edx, DWORD PTR _s$[ebp]
	mov	DWORD PTR [edx+4], ecx

; 414  :     strm->adler =
; 415  : #ifdef GZIP
; 416  :         s->wrap == 2 ? crc32(0L, Z_NULL, 0) :
; 417  : #endif
; 418  :         adler32(0L, Z_NULL, 0);

	mov	eax, DWORD PTR _s$[ebp]
	cmp	DWORD PTR [eax+24], 2
	jne	SHORT $LN6@deflateRes
	push	0
	push	0
	push	0
	call	_crc32@12
	mov	DWORD PTR tv131[ebp], eax
	jmp	SHORT $LN7@deflateRes
$LN6@deflateRes:
	push	0
	push	0
	push	0
	call	_adler32@12
	mov	DWORD PTR tv131[ebp], eax
$LN7@deflateRes:
	mov	ecx, DWORD PTR _strm$[ebp]
	mov	edx, DWORD PTR tv131[ebp]
	mov	DWORD PTR [ecx+48], edx

; 419  :     s->last_flush = Z_NO_FLUSH;

	mov	eax, DWORD PTR _s$[ebp]
	mov	DWORD PTR [eax+40], 0

; 420  : 
; 421  :     _tr_init(s);

	mov	eax, DWORD PTR _s$[ebp]
	push	eax
	call	__tr_init
	add	esp, 4

; 422  : 
; 423  :     return Z_OK;

	xor	eax, eax
$LN4@deflateRes:

; 424  : }

	pop	edi
	pop	esi
	pop	ebx
	mov	esp, ebp
	pop	ebp
	ret	4
_deflateResetKeep@4 ENDP
; Function compile flags: /Odtp /ZI
_TEXT	ENDS
;	COMDAT _deflateReset@4
_TEXT	SEGMENT
_ret$ = -4						; size = 4
_strm$ = 8						; size = 4
_deflateReset@4 PROC					; COMDAT

; 429  : {

	push	ebp
	mov	ebp, esp
	sub	esp, 68					; 00000044H
	push	ebx
	push	esi
	push	edi

; 430  :     int ret;
; 431  : 
; 432  :     ret = deflateResetKeep(strm);

	mov	eax, DWORD PTR _strm$[ebp]
	push	eax
	call	_deflateResetKeep@4
	mov	DWORD PTR _ret$[ebp], eax

; 433  :     if (ret == Z_OK)

	cmp	DWORD PTR _ret$[ebp], 0
	jne	SHORT $LN1@deflateRes@2

; 434  :         lm_init(strm->state);

	mov	eax, DWORD PTR _strm$[ebp]
	mov	ecx, DWORD PTR [eax+28]
	push	ecx
	call	_lm_init
	add	esp, 4
$LN1@deflateRes@2:

; 435  :     return ret;

	mov	eax, DWORD PTR _ret$[ebp]

; 436  : }

	pop	edi
	pop	esi
	pop	ebx
	mov	esp, ebp
	pop	ebp
	ret	4
_deflateReset@4 ENDP
_TEXT	ENDS
PUBLIC	_deflateSetHeader@8
; Function compile flags: /Odtp /ZI
;	COMDAT _deflateSetHeader@8
_TEXT	SEGMENT
_strm$ = 8						; size = 4
_head$ = 12						; size = 4
_deflateSetHeader@8 PROC				; COMDAT

; 442  : {

	push	ebp
	mov	ebp, esp
	sub	esp, 64					; 00000040H
	push	ebx
	push	esi
	push	edi

; 443  :     if (strm == Z_NULL || strm->state == Z_NULL) return Z_STREAM_ERROR;

	cmp	DWORD PTR _strm$[ebp], 0
	je	SHORT $LN2@deflateSet@2
	mov	eax, DWORD PTR _strm$[ebp]
	cmp	DWORD PTR [eax+28], 0
	jne	SHORT $LN3@deflateSet@2
$LN2@deflateSet@2:
	mov	eax, -2					; fffffffeH
	jmp	SHORT $LN4@deflateSet@2
$LN3@deflateSet@2:

; 444  :     if (strm->state->wrap != 2) return Z_STREAM_ERROR;

	mov	eax, DWORD PTR _strm$[ebp]
	mov	ecx, DWORD PTR [eax+28]
	cmp	DWORD PTR [ecx+24], 2
	je	SHORT $LN1@deflateSet@2
	mov	eax, -2					; fffffffeH
	jmp	SHORT $LN4@deflateSet@2
$LN1@deflateSet@2:

; 445  :     strm->state->gzhead = head;

	mov	eax, DWORD PTR _strm$[ebp]
	mov	ecx, DWORD PTR [eax+28]
	mov	edx, DWORD PTR _head$[ebp]
	mov	DWORD PTR [ecx+28], edx

; 446  :     return Z_OK;

	xor	eax, eax
$LN4@deflateSet@2:

; 447  : }

	pop	edi
	pop	esi
	pop	ebx
	mov	esp, ebp
	pop	ebp
	ret	8
_deflateSetHeader@8 ENDP
_TEXT	ENDS
PUBLIC	_deflatePending@12
; Function compile flags: /Odtp /ZI
;	COMDAT _deflatePending@12
_TEXT	SEGMENT
_strm$ = 8						; size = 4
_pending$ = 12						; size = 4
_bits$ = 16						; size = 4
_deflatePending@12 PROC					; COMDAT

; 454  : {

	push	ebp
	mov	ebp, esp
	sub	esp, 64					; 00000040H
	push	ebx
	push	esi
	push	edi

; 455  :     if (strm == Z_NULL || strm->state == Z_NULL) return Z_STREAM_ERROR;

	cmp	DWORD PTR _strm$[ebp], 0
	je	SHORT $LN3@deflatePen
	mov	eax, DWORD PTR _strm$[ebp]
	cmp	DWORD PTR [eax+28], 0
	jne	SHORT $LN4@deflatePen
$LN3@deflatePen:
	mov	eax, -2					; fffffffeH
	jmp	SHORT $LN5@deflatePen
$LN4@deflatePen:

; 456  :     if (pending != Z_NULL)

	cmp	DWORD PTR _pending$[ebp], 0
	je	SHORT $LN2@deflatePen

; 457  :         *pending = strm->state->pending;

	mov	eax, DWORD PTR _strm$[ebp]
	mov	ecx, DWORD PTR [eax+28]
	mov	edx, DWORD PTR _pending$[ebp]
	mov	eax, DWORD PTR [ecx+20]
	mov	DWORD PTR [edx], eax
$LN2@deflatePen:

; 458  :     if (bits != Z_NULL)

	cmp	DWORD PTR _bits$[ebp], 0
	je	SHORT $LN1@deflatePen

; 459  :         *bits = strm->state->bi_valid;

	mov	eax, DWORD PTR _strm$[ebp]
	mov	ecx, DWORD PTR [eax+28]
	mov	edx, DWORD PTR _bits$[ebp]
	mov	eax, DWORD PTR [ecx+5820]
	mov	DWORD PTR [edx], eax
$LN1@deflatePen:

; 460  :     return Z_OK;

	xor	eax, eax
$LN5@deflatePen:

; 461  : }

	pop	edi
	pop	esi
	pop	ebx
	mov	esp, ebp
	pop	ebp
	ret	12					; 0000000cH
_deflatePending@12 ENDP
_TEXT	ENDS
PUBLIC	_deflatePrime@12
EXTRN	__tr_flush_bits:PROC
; Function compile flags: /Odtp /ZI
;	COMDAT _deflatePrime@12
_TEXT	SEGMENT
_put$ = -8						; size = 4
_s$ = -4						; size = 4
_strm$ = 8						; size = 4
_bits$ = 12						; size = 4
_value$ = 16						; size = 4
_deflatePrime@12 PROC					; COMDAT

; 468  : {

	push	ebp
	mov	ebp, esp
	sub	esp, 72					; 00000048H
	push	ebx
	push	esi
	push	edi

; 469  :     deflate_state *s;
; 470  :     int put;
; 471  : 
; 472  :     if (strm == Z_NULL || strm->state == Z_NULL) return Z_STREAM_ERROR;

	cmp	DWORD PTR _strm$[ebp], 0
	je	SHORT $LN6@deflatePri
	mov	eax, DWORD PTR _strm$[ebp]
	cmp	DWORD PTR [eax+28], 0
	jne	SHORT $LN7@deflatePri
$LN6@deflatePri:
	mov	eax, -2					; fffffffeH
	jmp	$LN8@deflatePri
$LN7@deflatePri:

; 473  :     s = strm->state;

	mov	eax, DWORD PTR _strm$[ebp]
	mov	ecx, DWORD PTR [eax+28]
	mov	DWORD PTR _s$[ebp], ecx

; 474  :     if ((Bytef *)(s->d_buf) < s->pending_out + ((Buf_size + 7) >> 3))

	mov	eax, DWORD PTR _s$[ebp]
	mov	ecx, DWORD PTR [eax+16]
	add	ecx, 2
	mov	edx, DWORD PTR _s$[ebp]
	cmp	DWORD PTR [edx+5796], ecx
	jae	SHORT $LN4@deflatePri

; 475  :         return Z_BUF_ERROR;

	mov	eax, -5					; fffffffbH
	jmp	$LN8@deflatePri
$LN4@deflatePri:

; 476  :     do {
; 477  :         put = Buf_size - s->bi_valid;

	mov	eax, DWORD PTR _s$[ebp]
	mov	ecx, 16					; 00000010H
	sub	ecx, DWORD PTR [eax+5820]
	mov	DWORD PTR _put$[ebp], ecx

; 478  :         if (put > bits)

	mov	eax, DWORD PTR _put$[ebp]
	cmp	eax, DWORD PTR _bits$[ebp]
	jle	SHORT $LN1@deflatePri

; 479  :             put = bits;

	mov	eax, DWORD PTR _bits$[ebp]
	mov	DWORD PTR _put$[ebp], eax
$LN1@deflatePri:

; 480  :         s->bi_buf |= (ush)((value & ((1 << put) - 1)) << s->bi_valid);

	mov	eax, 1
	mov	ecx, DWORD PTR _put$[ebp]
	shl	eax, cl
	sub	eax, 1
	and	eax, DWORD PTR _value$[ebp]
	mov	ecx, DWORD PTR _s$[ebp]
	mov	ecx, DWORD PTR [ecx+5820]
	shl	eax, cl
	movzx	edx, ax
	mov	eax, DWORD PTR _s$[ebp]
	movzx	ecx, WORD PTR [eax+5816]
	or	ecx, edx
	mov	edx, DWORD PTR _s$[ebp]
	mov	WORD PTR [edx+5816], cx

; 481  :         s->bi_valid += put;

	mov	eax, DWORD PTR _s$[ebp]
	mov	ecx, DWORD PTR [eax+5820]
	add	ecx, DWORD PTR _put$[ebp]
	mov	edx, DWORD PTR _s$[ebp]
	mov	DWORD PTR [edx+5820], ecx

; 482  :         _tr_flush_bits(s);

	mov	eax, DWORD PTR _s$[ebp]
	push	eax
	call	__tr_flush_bits
	add	esp, 4

; 483  :         value >>= put;

	mov	eax, DWORD PTR _value$[ebp]
	mov	ecx, DWORD PTR _put$[ebp]
	sar	eax, cl
	mov	DWORD PTR _value$[ebp], eax

; 484  :         bits -= put;

	mov	eax, DWORD PTR _bits$[ebp]
	sub	eax, DWORD PTR _put$[ebp]
	mov	DWORD PTR _bits$[ebp], eax

; 485  :     } while (bits);

	jne	$LN4@deflatePri

; 486  :     return Z_OK;

	xor	eax, eax
$LN8@deflatePri:

; 487  : }

	pop	edi
	pop	esi
	pop	ebx
	mov	esp, ebp
	pop	ebp
	ret	12					; 0000000cH
_deflatePrime@12 ENDP
_TEXT	ENDS
PUBLIC	_deflate@8
PUBLIC	_deflateParams@12
; Function compile flags: /Odtp /ZI
;	COMDAT _deflateParams@12
_TEXT	SEGMENT
_err$ = -12						; size = 4
_func$ = -8						; size = 4
_s$ = -4						; size = 4
_strm$ = 8						; size = 4
_level$ = 12						; size = 4
_strategy$ = 16						; size = 4
_deflateParams@12 PROC					; COMDAT

; 494  : {

	push	ebp
	mov	ebp, esp
	sub	esp, 76					; 0000004cH
	push	ebx
	push	esi
	push	edi

; 495  :     deflate_state *s;
; 496  :     compress_func func;
; 497  :     int err = Z_OK;

	mov	DWORD PTR _err$[ebp], 0

; 498  : 
; 499  :     if (strm == Z_NULL || strm->state == Z_NULL) return Z_STREAM_ERROR;

	cmp	DWORD PTR _strm$[ebp], 0
	je	SHORT $LN7@deflatePar
	mov	eax, DWORD PTR _strm$[ebp]
	cmp	DWORD PTR [eax+28], 0
	jne	SHORT $LN8@deflatePar
$LN7@deflatePar:
	mov	eax, -2					; fffffffeH
	jmp	$LN9@deflatePar
$LN8@deflatePar:

; 500  :     s = strm->state;

	mov	eax, DWORD PTR _strm$[ebp]
	mov	ecx, DWORD PTR [eax+28]
	mov	DWORD PTR _s$[ebp], ecx

; 501  : 
; 502  : #ifdef FASTEST
; 503  :     if (level != 0) level = 1;
; 504  : #else
; 505  :     if (level == Z_DEFAULT_COMPRESSION) level = 6;

	cmp	DWORD PTR _level$[ebp], -1
	jne	SHORT $LN6@deflatePar
	mov	DWORD PTR _level$[ebp], 6
$LN6@deflatePar:

; 506  : #endif
; 507  :     if (level < 0 || level > 9 || strategy < 0 || strategy > Z_FIXED) {

	cmp	DWORD PTR _level$[ebp], 0
	jl	SHORT $LN4@deflatePar
	cmp	DWORD PTR _level$[ebp], 9
	jg	SHORT $LN4@deflatePar
	cmp	DWORD PTR _strategy$[ebp], 0
	jl	SHORT $LN4@deflatePar
	cmp	DWORD PTR _strategy$[ebp], 4
	jle	SHORT $LN5@deflatePar
$LN4@deflatePar:

; 508  :         return Z_STREAM_ERROR;

	mov	eax, -2					; fffffffeH
	jmp	$LN9@deflatePar
$LN5@deflatePar:

; 509  :     }
; 510  :     func = configuration_table[s->level].func;

	mov	eax, DWORD PTR _s$[ebp]
	mov	ecx, DWORD PTR [eax+132]
	imul	ecx, 12					; 0000000cH
	mov	edx, DWORD PTR _configuration_table[ecx+8]
	mov	DWORD PTR _func$[ebp], edx

; 511  : 
; 512  :     if ((strategy != s->strategy || func != configuration_table[level].func) &&
; 513  :         strm->total_in != 0) {

	mov	eax, DWORD PTR _s$[ebp]
	mov	ecx, DWORD PTR _strategy$[ebp]
	cmp	ecx, DWORD PTR [eax+136]
	jne	SHORT $LN2@deflatePar
	mov	eax, DWORD PTR _level$[ebp]
	imul	eax, 12					; 0000000cH
	mov	ecx, DWORD PTR _func$[ebp]
	cmp	ecx, DWORD PTR _configuration_table[eax+8]
	je	SHORT $LN3@deflatePar
$LN2@deflatePar:
	mov	eax, DWORD PTR _strm$[ebp]
	cmp	DWORD PTR [eax+8], 0
	je	SHORT $LN3@deflatePar

; 514  :         /* Flush the last buffer: */
; 515  :         err = deflate(strm, Z_BLOCK);

	push	5
	mov	eax, DWORD PTR _strm$[ebp]
	push	eax
	call	_deflate@8
	mov	DWORD PTR _err$[ebp], eax
$LN3@deflatePar:

; 516  :     }
; 517  :     if (s->level != level) {

	mov	eax, DWORD PTR _s$[ebp]
	mov	ecx, DWORD PTR [eax+132]
	cmp	ecx, DWORD PTR _level$[ebp]
	je	SHORT $LN1@deflatePar

; 518  :         s->level = level;

	mov	eax, DWORD PTR _s$[ebp]
	mov	ecx, DWORD PTR _level$[ebp]
	mov	DWORD PTR [eax+132], ecx

; 519  :         s->max_lazy_match   = configuration_table[level].max_lazy;

	mov	eax, DWORD PTR _level$[ebp]
	imul	eax, 12					; 0000000cH
	movzx	ecx, WORD PTR _configuration_table[eax+2]
	mov	edx, DWORD PTR _s$[ebp]
	mov	DWORD PTR [edx+128], ecx

; 520  :         s->good_match       = configuration_table[level].good_length;

	mov	eax, DWORD PTR _level$[ebp]
	imul	eax, 12					; 0000000cH
	movzx	ecx, WORD PTR _configuration_table[eax]
	mov	edx, DWORD PTR _s$[ebp]
	mov	DWORD PTR [edx+140], ecx

; 521  :         s->nice_match       = configuration_table[level].nice_length;

	mov	eax, DWORD PTR _level$[ebp]
	imul	eax, 12					; 0000000cH
	movzx	ecx, WORD PTR _configuration_table[eax+4]
	mov	edx, DWORD PTR _s$[ebp]
	mov	DWORD PTR [edx+144], ecx

; 522  :         s->max_chain_length = configuration_table[level].max_chain;

	mov	eax, DWORD PTR _level$[ebp]
	imul	eax, 12					; 0000000cH
	movzx	ecx, WORD PTR _configuration_table[eax+6]
	mov	edx, DWORD PTR _s$[ebp]
	mov	DWORD PTR [edx+124], ecx
$LN1@deflatePar:

; 523  :     }
; 524  :     s->strategy = strategy;

	mov	eax, DWORD PTR _s$[ebp]
	mov	ecx, DWORD PTR _strategy$[ebp]
	mov	DWORD PTR [eax+136], ecx

; 525  :     return err;

	mov	eax, DWORD PTR _err$[ebp]
$LN9@deflatePar:

; 526  : }

	pop	edi
	pop	esi
	pop	ebx
	mov	esp, ebp
	pop	ebp
	ret	12					; 0000000cH
_deflateParams@12 ENDP
_TEXT	ENDS
PUBLIC	_deflateTune@20
; Function compile flags: /Odtp /ZI
;	COMDAT _deflateTune@20
_TEXT	SEGMENT
_s$ = -4						; size = 4
_strm$ = 8						; size = 4
_good_length$ = 12					; size = 4
_max_lazy$ = 16						; size = 4
_nice_length$ = 20					; size = 4
_max_chain$ = 24					; size = 4
_deflateTune@20 PROC					; COMDAT

; 535  : {

	push	ebp
	mov	ebp, esp
	sub	esp, 68					; 00000044H
	push	ebx
	push	esi
	push	edi

; 536  :     deflate_state *s;
; 537  : 
; 538  :     if (strm == Z_NULL || strm->state == Z_NULL) return Z_STREAM_ERROR;

	cmp	DWORD PTR _strm$[ebp], 0
	je	SHORT $LN1@deflateTun
	mov	eax, DWORD PTR _strm$[ebp]
	cmp	DWORD PTR [eax+28], 0
	jne	SHORT $LN2@deflateTun
$LN1@deflateTun:
	mov	eax, -2					; fffffffeH
	jmp	SHORT $LN3@deflateTun
$LN2@deflateTun:

; 539  :     s = strm->state;

	mov	eax, DWORD PTR _strm$[ebp]
	mov	ecx, DWORD PTR [eax+28]
	mov	DWORD PTR _s$[ebp], ecx

; 540  :     s->good_match = good_length;

	mov	eax, DWORD PTR _s$[ebp]
	mov	ecx, DWORD PTR _good_length$[ebp]
	mov	DWORD PTR [eax+140], ecx

; 541  :     s->max_lazy_match = max_lazy;

	mov	eax, DWORD PTR _s$[ebp]
	mov	ecx, DWORD PTR _max_lazy$[ebp]
	mov	DWORD PTR [eax+128], ecx

; 542  :     s->nice_match = nice_length;

	mov	eax, DWORD PTR _s$[ebp]
	mov	ecx, DWORD PTR _nice_length$[ebp]
	mov	DWORD PTR [eax+144], ecx

; 543  :     s->max_chain_length = max_chain;

	mov	eax, DWORD PTR _s$[ebp]
	mov	ecx, DWORD PTR _max_chain$[ebp]
	mov	DWORD PTR [eax+124], ecx

; 544  :     return Z_OK;

	xor	eax, eax
$LN3@deflateTun:

; 545  : }

	pop	edi
	pop	esi
	pop	ebx
	mov	esp, ebp
	pop	ebp
	ret	20					; 00000014H
_deflateTune@20 ENDP
_TEXT	ENDS
PUBLIC	_deflateBound@8
; Function compile flags: /Odtp /ZI
;	COMDAT _deflateBound@8
_TEXT	SEGMENT
tv77 = -84						; size = 4
_str$ = -16						; size = 4
_wraplen$ = -12						; size = 4
_complen$ = -8						; size = 4
_s$ = -4						; size = 4
_strm$ = 8						; size = 4
_sourceLen$ = 12					; size = 4
_deflateBound@8 PROC					; COMDAT

; 567  : {

	push	ebp
	mov	ebp, esp
	sub	esp, 84					; 00000054H
	push	ebx
	push	esi
	push	edi

; 568  :     deflate_state *s;
; 569  :     uLong complen, wraplen;
; 570  :     Bytef *str;
; 571  : 
; 572  :     /* conservative upper bound for compressed data */
; 573  :     complen = sourceLen +
; 574  :               ((sourceLen + 7) >> 3) + ((sourceLen + 63) >> 6) + 5;

	mov	eax, DWORD PTR _sourceLen$[ebp]
	add	eax, 7
	shr	eax, 3
	add	eax, DWORD PTR _sourceLen$[ebp]
	mov	ecx, DWORD PTR _sourceLen$[ebp]
	add	ecx, 63					; 0000003fH
	shr	ecx, 6
	lea	edx, DWORD PTR [eax+ecx+5]
	mov	DWORD PTR _complen$[ebp], edx

; 575  : 
; 576  :     /* if can't get parameters, return conservative bound plus zlib wrapper */
; 577  :     if (strm == Z_NULL || strm->state == Z_NULL)

	cmp	DWORD PTR _strm$[ebp], 0
	je	SHORT $LN20@deflateBou
	mov	eax, DWORD PTR _strm$[ebp]
	cmp	DWORD PTR [eax+28], 0
	jne	SHORT $LN21@deflateBou
$LN20@deflateBou:

; 578  :         return complen + 6;

	mov	eax, DWORD PTR _complen$[ebp]
	add	eax, 6
	jmp	$LN22@deflateBou
$LN21@deflateBou:

; 579  : 
; 580  :     /* compute wrapper length */
; 581  :     s = strm->state;

	mov	eax, DWORD PTR _strm$[ebp]
	mov	ecx, DWORD PTR [eax+28]
	mov	DWORD PTR _s$[ebp], ecx

; 582  :     switch (s->wrap) {

	mov	eax, DWORD PTR _s$[ebp]
	mov	ecx, DWORD PTR [eax+24]
	mov	DWORD PTR tv77[ebp], ecx
	cmp	DWORD PTR tv77[ebp], 0
	je	SHORT $LN17@deflateBou
	cmp	DWORD PTR tv77[ebp], 1
	je	SHORT $LN16@deflateBou
	cmp	DWORD PTR tv77[ebp], 2
	je	SHORT $LN15@deflateBou
	jmp	$LN3@deflateBou
$LN17@deflateBou:

; 583  :     case 0:                                 /* raw deflate */
; 584  :         wraplen = 0;

	mov	DWORD PTR _wraplen$[ebp], 0

; 585  :         break;

	jmp	$LN18@deflateBou
$LN16@deflateBou:

; 586  :     case 1:                                 /* zlib wrapper */
; 587  :         wraplen = 6 + (s->strstart ? 4 : 0);

	mov	eax, DWORD PTR _s$[ebp]
	mov	ecx, DWORD PTR [eax+108]
	neg	ecx
	sbb	ecx, ecx
	and	ecx, 4
	add	ecx, 6
	mov	DWORD PTR _wraplen$[ebp], ecx

; 588  :         break;

	jmp	$LN18@deflateBou
$LN15@deflateBou:

; 589  :     case 2:                                 /* gzip wrapper */
; 590  :         wraplen = 18;

	mov	DWORD PTR _wraplen$[ebp], 18		; 00000012H

; 591  :         if (s->gzhead != Z_NULL) {          /* user-supplied gzip header */

	mov	eax, DWORD PTR _s$[ebp]
	cmp	DWORD PTR [eax+28], 0
	je	$LN14@deflateBou

; 592  :             if (s->gzhead->extra != Z_NULL)

	mov	eax, DWORD PTR _s$[ebp]
	mov	ecx, DWORD PTR [eax+28]
	cmp	DWORD PTR [ecx+16], 0
	je	SHORT $LN13@deflateBou

; 593  :                 wraplen += 2 + s->gzhead->extra_len;

	mov	eax, DWORD PTR _s$[ebp]
	mov	ecx, DWORD PTR [eax+28]
	mov	edx, DWORD PTR [ecx+20]
	mov	eax, DWORD PTR _wraplen$[ebp]
	lea	ecx, DWORD PTR [eax+edx+2]
	mov	DWORD PTR _wraplen$[ebp], ecx
$LN13@deflateBou:

; 594  :             str = s->gzhead->name;

	mov	eax, DWORD PTR _s$[ebp]
	mov	ecx, DWORD PTR [eax+28]
	mov	edx, DWORD PTR [ecx+28]
	mov	DWORD PTR _str$[ebp], edx

; 595  :             if (str != Z_NULL)

	cmp	DWORD PTR _str$[ebp], 0
	je	SHORT $LN12@deflateBou
$LN11@deflateBou:

; 596  :                 do {
; 597  :                     wraplen++;

	mov	eax, DWORD PTR _wraplen$[ebp]
	add	eax, 1
	mov	DWORD PTR _wraplen$[ebp], eax

; 598  :                 } while (*str++);

	mov	eax, DWORD PTR _str$[ebp]
	movzx	ecx, BYTE PTR [eax]
	mov	edx, DWORD PTR _str$[ebp]
	add	edx, 1
	mov	DWORD PTR _str$[ebp], edx
	test	ecx, ecx
	jne	SHORT $LN11@deflateBou
$LN12@deflateBou:

; 599  :             str = s->gzhead->comment;

	mov	eax, DWORD PTR _s$[ebp]
	mov	ecx, DWORD PTR [eax+28]
	mov	edx, DWORD PTR [ecx+36]
	mov	DWORD PTR _str$[ebp], edx

; 600  :             if (str != Z_NULL)

	cmp	DWORD PTR _str$[ebp], 0
	je	SHORT $LN8@deflateBou
$LN7@deflateBou:

; 601  :                 do {
; 602  :                     wraplen++;

	mov	eax, DWORD PTR _wraplen$[ebp]
	add	eax, 1
	mov	DWORD PTR _wraplen$[ebp], eax

; 603  :                 } while (*str++);

	mov	eax, DWORD PTR _str$[ebp]
	movzx	ecx, BYTE PTR [eax]
	mov	edx, DWORD PTR _str$[ebp]
	add	edx, 1
	mov	DWORD PTR _str$[ebp], edx
	test	ecx, ecx
	jne	SHORT $LN7@deflateBou
$LN8@deflateBou:

; 604  :             if (s->gzhead->hcrc)

	mov	eax, DWORD PTR _s$[ebp]
	mov	ecx, DWORD PTR [eax+28]
	cmp	DWORD PTR [ecx+44], 0
	je	SHORT $LN14@deflateBou

; 605  :                 wraplen += 2;

	mov	eax, DWORD PTR _wraplen$[ebp]
	add	eax, 2
	mov	DWORD PTR _wraplen$[ebp], eax
$LN14@deflateBou:

; 606  :         }
; 607  :         break;

	jmp	SHORT $LN18@deflateBou
$LN3@deflateBou:

; 608  :     default:                                /* for compiler happiness */
; 609  :         wraplen = 6;

	mov	DWORD PTR _wraplen$[ebp], 6
$LN18@deflateBou:

; 610  :     }
; 611  : 
; 612  :     /* if not default parameters, return conservative bound */
; 613  :     if (s->w_bits != 15 || s->hash_bits != 8 + 7)

	mov	eax, DWORD PTR _s$[ebp]
	cmp	DWORD PTR [eax+48], 15			; 0000000fH
	jne	SHORT $LN1@deflateBou
	mov	eax, DWORD PTR _s$[ebp]
	cmp	DWORD PTR [eax+80], 15			; 0000000fH
	je	SHORT $LN2@deflateBou
$LN1@deflateBou:

; 614  :         return complen + wraplen;

	mov	eax, DWORD PTR _complen$[ebp]
	add	eax, DWORD PTR _wraplen$[ebp]
	jmp	SHORT $LN22@deflateBou
$LN2@deflateBou:

; 615  : 
; 616  :     /* default settings: return tight bound for that case */
; 617  :     return sourceLen + (sourceLen >> 12) + (sourceLen >> 14) +
; 618  :            (sourceLen >> 25) + 13 - 6 + wraplen;

	mov	eax, DWORD PTR _sourceLen$[ebp]
	shr	eax, 12					; 0000000cH
	add	eax, DWORD PTR _sourceLen$[ebp]
	mov	ecx, DWORD PTR _sourceLen$[ebp]
	shr	ecx, 14					; 0000000eH
	add	eax, ecx
	mov	edx, DWORD PTR _sourceLen$[ebp]
	shr	edx, 25					; 00000019H
	add	eax, DWORD PTR _wraplen$[ebp]
	lea	eax, DWORD PTR [edx+eax+7]
$LN22@deflateBou:

; 619  : }

	pop	edi
	pop	esi
	pop	ebx
	mov	esp, ebp
	pop	ebp
	ret	8
_deflateBound@8 ENDP
_TEXT	ENDS
EXTRN	__tr_stored_block:PROC
EXTRN	__tr_align:PROC
; Function compile flags: /Odtp /ZI
;	COMDAT _deflate@8
_TEXT	SEGMENT
tv659 = -112						; size = 4
tv285 = -112						; size = 4
tv189 = -112						; size = 4
tv660 = -108						; size = 4
tv286 = -108						; size = 4
tv190 = -108						; size = 4
_bstate$80730 = -40					; size = 4
_val$80704 = -36					; size = 4
_beg$80703 = -32					; size = 4
_val$80691 = -28					; size = 4
_beg$80690 = -24					; size = 4
_beg$80678 = -20					; size = 4
_level_flags$80664 = -16				; size = 4
_header$80663 = -12					; size = 4
_s$ = -8						; size = 4
_old_flush$ = -4					; size = 4
_strm$ = 8						; size = 4
_flush$ = 12						; size = 4
_deflate@8 PROC						; COMDAT

; 666  : {

	push	ebp
	mov	ebp, esp
	sub	esp, 112				; 00000070H
	push	ebx
	push	esi
	push	edi

; 667  :     int old_flush; /* value of flush param for previous deflate call */
; 668  :     deflate_state *s;
; 669  : 
; 670  :     if (strm == Z_NULL || strm->state == Z_NULL ||
; 671  :         flush > Z_BLOCK || flush < 0) {

	cmp	DWORD PTR _strm$[ebp], 0
	je	SHORT $LN82@deflate
	mov	eax, DWORD PTR _strm$[ebp]
	cmp	DWORD PTR [eax+28], 0
	je	SHORT $LN82@deflate
	cmp	DWORD PTR _flush$[ebp], 5
	jg	SHORT $LN82@deflate
	cmp	DWORD PTR _flush$[ebp], 0
	jge	SHORT $LN83@deflate
$LN82@deflate:

; 672  :         return Z_STREAM_ERROR;

	mov	eax, -2					; fffffffeH
	jmp	$LN84@deflate
$LN83@deflate:

; 673  :     }
; 674  :     s = strm->state;

	mov	eax, DWORD PTR _strm$[ebp]
	mov	ecx, DWORD PTR [eax+28]
	mov	DWORD PTR _s$[ebp], ecx

; 675  : 
; 676  :     if (strm->next_out == Z_NULL ||
; 677  :         (strm->next_in == Z_NULL && strm->avail_in != 0) ||
; 678  :         (s->status == FINISH_STATE && flush != Z_FINISH)) {

	mov	eax, DWORD PTR _strm$[ebp]
	cmp	DWORD PTR [eax+12], 0
	je	SHORT $LN80@deflate
	mov	eax, DWORD PTR _strm$[ebp]
	cmp	DWORD PTR [eax], 0
	jne	SHORT $LN79@deflate
	mov	eax, DWORD PTR _strm$[ebp]
	cmp	DWORD PTR [eax+4], 0
	jne	SHORT $LN80@deflate
$LN79@deflate:
	mov	eax, DWORD PTR _s$[ebp]
	cmp	DWORD PTR [eax+4], 666			; 0000029aH
	jne	SHORT $LN81@deflate
	cmp	DWORD PTR _flush$[ebp], 4
	je	SHORT $LN81@deflate
$LN80@deflate:

; 679  :         ERR_RETURN(strm, Z_STREAM_ERROR);

	mov	eax, DWORD PTR _strm$[ebp]
	mov	ecx, DWORD PTR _z_errmsg+16
	mov	DWORD PTR [eax+24], ecx
	mov	eax, -2					; fffffffeH
	jmp	$LN84@deflate
$LN81@deflate:

; 680  :     }
; 681  :     if (strm->avail_out == 0) ERR_RETURN(strm, Z_BUF_ERROR);

	mov	eax, DWORD PTR _strm$[ebp]
	cmp	DWORD PTR [eax+16], 0
	jne	SHORT $LN78@deflate
	mov	eax, DWORD PTR _strm$[ebp]
	mov	ecx, DWORD PTR _z_errmsg+28
	mov	DWORD PTR [eax+24], ecx
	mov	eax, -5					; fffffffbH
	jmp	$LN84@deflate
$LN78@deflate:

; 682  : 
; 683  :     s->strm = strm; /* just in case */

	mov	eax, DWORD PTR _s$[ebp]
	mov	ecx, DWORD PTR _strm$[ebp]
	mov	DWORD PTR [eax], ecx

; 684  :     old_flush = s->last_flush;

	mov	eax, DWORD PTR _s$[ebp]
	mov	ecx, DWORD PTR [eax+40]
	mov	DWORD PTR _old_flush$[ebp], ecx

; 685  :     s->last_flush = flush;

	mov	eax, DWORD PTR _s$[ebp]
	mov	ecx, DWORD PTR _flush$[ebp]
	mov	DWORD PTR [eax+40], ecx

; 686  : 
; 687  :     /* Write the header */
; 688  :     if (s->status == INIT_STATE) {

	mov	eax, DWORD PTR _s$[ebp]
	cmp	DWORD PTR [eax+4], 42			; 0000002aH
	jne	$LN77@deflate

; 689  : #ifdef GZIP
; 690  :         if (s->wrap == 2) {

	mov	eax, DWORD PTR _s$[ebp]
	cmp	DWORD PTR [eax+24], 2
	jne	$LN76@deflate

; 691  :             strm->adler = crc32(0L, Z_NULL, 0);

	push	0
	push	0
	push	0
	call	_crc32@12
	mov	ecx, DWORD PTR _strm$[ebp]
	mov	DWORD PTR [ecx+48], eax

; 692  :             put_byte(s, 31);

	mov	eax, DWORD PTR _s$[ebp]
	mov	ecx, DWORD PTR [eax+8]
	mov	edx, DWORD PTR _s$[ebp]
	mov	eax, DWORD PTR [edx+20]
	mov	BYTE PTR [ecx+eax], 31			; 0000001fH
	mov	ecx, DWORD PTR _s$[ebp]
	mov	edx, DWORD PTR [ecx+20]
	add	edx, 1
	mov	eax, DWORD PTR _s$[ebp]
	mov	DWORD PTR [eax+20], edx

; 693  :             put_byte(s, 139);

	mov	eax, DWORD PTR _s$[ebp]
	mov	ecx, DWORD PTR [eax+8]
	mov	edx, DWORD PTR _s$[ebp]
	mov	eax, DWORD PTR [edx+20]
	mov	BYTE PTR [ecx+eax], 139			; 0000008bH
	mov	ecx, DWORD PTR _s$[ebp]
	mov	edx, DWORD PTR [ecx+20]
	add	edx, 1
	mov	eax, DWORD PTR _s$[ebp]
	mov	DWORD PTR [eax+20], edx

; 694  :             put_byte(s, 8);

	mov	eax, DWORD PTR _s$[ebp]
	mov	ecx, DWORD PTR [eax+8]
	mov	edx, DWORD PTR _s$[ebp]
	mov	eax, DWORD PTR [edx+20]
	mov	BYTE PTR [ecx+eax], 8
	mov	ecx, DWORD PTR _s$[ebp]
	mov	edx, DWORD PTR [ecx+20]
	add	edx, 1
	mov	eax, DWORD PTR _s$[ebp]
	mov	DWORD PTR [eax+20], edx

; 695  :             if (s->gzhead == Z_NULL) {

	mov	eax, DWORD PTR _s$[ebp]
	cmp	DWORD PTR [eax+28], 0
	jne	$LN75@deflate

; 696  :                 put_byte(s, 0);

	mov	eax, DWORD PTR _s$[ebp]
	mov	ecx, DWORD PTR [eax+8]
	mov	edx, DWORD PTR _s$[ebp]
	mov	eax, DWORD PTR [edx+20]
	mov	BYTE PTR [ecx+eax], 0
	mov	ecx, DWORD PTR _s$[ebp]
	mov	edx, DWORD PTR [ecx+20]
	add	edx, 1
	mov	eax, DWORD PTR _s$[ebp]
	mov	DWORD PTR [eax+20], edx

; 697  :                 put_byte(s, 0);

	mov	eax, DWORD PTR _s$[ebp]
	mov	ecx, DWORD PTR [eax+8]
	mov	edx, DWORD PTR _s$[ebp]
	mov	eax, DWORD PTR [edx+20]
	mov	BYTE PTR [ecx+eax], 0
	mov	ecx, DWORD PTR _s$[ebp]
	mov	edx, DWORD PTR [ecx+20]
	add	edx, 1
	mov	eax, DWORD PTR _s$[ebp]
	mov	DWORD PTR [eax+20], edx

; 698  :                 put_byte(s, 0);

	mov	eax, DWORD PTR _s$[ebp]
	mov	ecx, DWORD PTR [eax+8]
	mov	edx, DWORD PTR _s$[ebp]
	mov	eax, DWORD PTR [edx+20]
	mov	BYTE PTR [ecx+eax], 0
	mov	ecx, DWORD PTR _s$[ebp]
	mov	edx, DWORD PTR [ecx+20]
	add	edx, 1
	mov	eax, DWORD PTR _s$[ebp]
	mov	DWORD PTR [eax+20], edx

; 699  :                 put_byte(s, 0);

	mov	eax, DWORD PTR _s$[ebp]
	mov	ecx, DWORD PTR [eax+8]
	mov	edx, DWORD PTR _s$[ebp]
	mov	eax, DWORD PTR [edx+20]
	mov	BYTE PTR [ecx+eax], 0
	mov	ecx, DWORD PTR _s$[ebp]
	mov	edx, DWORD PTR [ecx+20]
	add	edx, 1
	mov	eax, DWORD PTR _s$[ebp]
	mov	DWORD PTR [eax+20], edx

; 700  :                 put_byte(s, 0);

	mov	eax, DWORD PTR _s$[ebp]
	mov	ecx, DWORD PTR [eax+8]
	mov	edx, DWORD PTR _s$[ebp]
	mov	eax, DWORD PTR [edx+20]
	mov	BYTE PTR [ecx+eax], 0
	mov	ecx, DWORD PTR _s$[ebp]
	mov	edx, DWORD PTR [ecx+20]
	add	edx, 1
	mov	eax, DWORD PTR _s$[ebp]
	mov	DWORD PTR [eax+20], edx

; 701  :                 put_byte(s, s->level == 9 ? 2 :
; 702  :                             (s->strategy >= Z_HUFFMAN_ONLY || s->level < 2 ?
; 703  :                              4 : 0));

	mov	eax, DWORD PTR _s$[ebp]
	cmp	DWORD PTR [eax+132], 9
	jne	SHORT $LN88@deflate
	mov	DWORD PTR tv190[ebp], 2
	jmp	SHORT $LN89@deflate
$LN88@deflate:
	mov	ecx, DWORD PTR _s$[ebp]
	cmp	DWORD PTR [ecx+136], 2
	jge	SHORT $LN86@deflate
	mov	edx, DWORD PTR _s$[ebp]
	cmp	DWORD PTR [edx+132], 2
	jl	SHORT $LN86@deflate
	mov	DWORD PTR tv189[ebp], 0
	jmp	SHORT $LN87@deflate
$LN86@deflate:
	mov	DWORD PTR tv189[ebp], 4
$LN87@deflate:
	mov	eax, DWORD PTR tv189[ebp]
	mov	DWORD PTR tv190[ebp], eax
$LN89@deflate:
	mov	ecx, DWORD PTR _s$[ebp]
	mov	edx, DWORD PTR [ecx+8]
	mov	eax, DWORD PTR _s$[ebp]
	mov	ecx, DWORD PTR [eax+20]
	mov	al, BYTE PTR tv190[ebp]
	mov	BYTE PTR [edx+ecx], al
	mov	ecx, DWORD PTR _s$[ebp]
	mov	edx, DWORD PTR [ecx+20]
	add	edx, 1
	mov	eax, DWORD PTR _s$[ebp]
	mov	DWORD PTR [eax+20], edx

; 704  :                 put_byte(s, OS_CODE);

	mov	eax, DWORD PTR _s$[ebp]
	mov	ecx, DWORD PTR [eax+8]
	mov	edx, DWORD PTR _s$[ebp]
	mov	eax, DWORD PTR [edx+20]
	mov	BYTE PTR [ecx+eax], 11			; 0000000bH
	mov	ecx, DWORD PTR _s$[ebp]
	mov	edx, DWORD PTR [ecx+20]
	add	edx, 1
	mov	eax, DWORD PTR _s$[ebp]
	mov	DWORD PTR [eax+20], edx

; 705  :                 s->status = BUSY_STATE;

	mov	eax, DWORD PTR _s$[ebp]
	mov	DWORD PTR [eax+4], 113			; 00000071H

; 706  :             }
; 707  :             else {

	jmp	$LN74@deflate
$LN75@deflate:

; 708  :                 put_byte(s, (s->gzhead->text ? 1 : 0) +
; 709  :                             (s->gzhead->hcrc ? 2 : 0) +
; 710  :                             (s->gzhead->extra == Z_NULL ? 0 : 4) +
; 711  :                             (s->gzhead->name == Z_NULL ? 0 : 8) +
; 712  :                             (s->gzhead->comment == Z_NULL ? 0 : 16)
; 713  :                         );

	mov	eax, DWORD PTR _s$[ebp]
	mov	ecx, DWORD PTR [eax+28]
	xor	edx, edx
	cmp	DWORD PTR [ecx], 0
	setne	dl
	mov	eax, DWORD PTR _s$[ebp]
	mov	ecx, DWORD PTR [eax+28]
	mov	eax, DWORD PTR [ecx+44]
	neg	eax
	sbb	eax, eax
	and	eax, 2
	add	edx, eax
	mov	ecx, DWORD PTR _s$[ebp]
	mov	eax, DWORD PTR [ecx+28]
	mov	ecx, DWORD PTR [eax+16]
	neg	ecx
	sbb	ecx, ecx
	and	ecx, 4
	add	edx, ecx
	mov	eax, DWORD PTR _s$[ebp]
	mov	ecx, DWORD PTR [eax+28]
	mov	eax, DWORD PTR [ecx+28]
	neg	eax
	sbb	eax, eax
	and	eax, 8
	add	edx, eax
	mov	ecx, DWORD PTR _s$[ebp]
	mov	eax, DWORD PTR [ecx+28]
	mov	ecx, DWORD PTR [eax+36]
	neg	ecx
	sbb	ecx, ecx
	and	ecx, 16					; 00000010H
	add	edx, ecx
	mov	eax, DWORD PTR _s$[ebp]
	mov	ecx, DWORD PTR [eax+8]
	mov	eax, DWORD PTR _s$[ebp]
	mov	eax, DWORD PTR [eax+20]
	mov	BYTE PTR [ecx+eax], dl
	mov	ecx, DWORD PTR _s$[ebp]
	mov	edx, DWORD PTR [ecx+20]
	add	edx, 1
	mov	eax, DWORD PTR _s$[ebp]
	mov	DWORD PTR [eax+20], edx

; 714  :                 put_byte(s, (Byte)(s->gzhead->time & 0xff));

	mov	eax, DWORD PTR _s$[ebp]
	mov	ecx, DWORD PTR [eax+28]
	mov	edx, DWORD PTR [ecx+4]
	and	edx, 255				; 000000ffH
	mov	eax, DWORD PTR _s$[ebp]
	mov	ecx, DWORD PTR [eax+8]
	mov	eax, DWORD PTR _s$[ebp]
	mov	eax, DWORD PTR [eax+20]
	mov	BYTE PTR [ecx+eax], dl
	mov	ecx, DWORD PTR _s$[ebp]
	mov	edx, DWORD PTR [ecx+20]
	add	edx, 1
	mov	eax, DWORD PTR _s$[ebp]
	mov	DWORD PTR [eax+20], edx

; 715  :                 put_byte(s, (Byte)((s->gzhead->time >> 8) & 0xff));

	mov	eax, DWORD PTR _s$[ebp]
	mov	ecx, DWORD PTR [eax+28]
	mov	edx, DWORD PTR [ecx+4]
	shr	edx, 8
	and	edx, 255				; 000000ffH
	mov	eax, DWORD PTR _s$[ebp]
	mov	ecx, DWORD PTR [eax+8]
	mov	eax, DWORD PTR _s$[ebp]
	mov	eax, DWORD PTR [eax+20]
	mov	BYTE PTR [ecx+eax], dl
	mov	ecx, DWORD PTR _s$[ebp]
	mov	edx, DWORD PTR [ecx+20]
	add	edx, 1
	mov	eax, DWORD PTR _s$[ebp]
	mov	DWORD PTR [eax+20], edx

; 716  :                 put_byte(s, (Byte)((s->gzhead->time >> 16) & 0xff));

	mov	eax, DWORD PTR _s$[ebp]
	mov	ecx, DWORD PTR [eax+28]
	mov	edx, DWORD PTR [ecx+4]
	shr	edx, 16					; 00000010H
	and	edx, 255				; 000000ffH
	mov	eax, DWORD PTR _s$[ebp]
	mov	ecx, DWORD PTR [eax+8]
	mov	eax, DWORD PTR _s$[ebp]
	mov	eax, DWORD PTR [eax+20]
	mov	BYTE PTR [ecx+eax], dl
	mov	ecx, DWORD PTR _s$[ebp]
	mov	edx, DWORD PTR [ecx+20]
	add	edx, 1
	mov	eax, DWORD PTR _s$[ebp]
	mov	DWORD PTR [eax+20], edx

; 717  :                 put_byte(s, (Byte)((s->gzhead->time >> 24) & 0xff));

	mov	eax, DWORD PTR _s$[ebp]
	mov	ecx, DWORD PTR [eax+28]
	mov	edx, DWORD PTR [ecx+4]
	shr	edx, 24					; 00000018H
	and	edx, 255				; 000000ffH
	mov	eax, DWORD PTR _s$[ebp]
	mov	ecx, DWORD PTR [eax+8]
	mov	eax, DWORD PTR _s$[ebp]
	mov	eax, DWORD PTR [eax+20]
	mov	BYTE PTR [ecx+eax], dl
	mov	ecx, DWORD PTR _s$[ebp]
	mov	edx, DWORD PTR [ecx+20]
	add	edx, 1
	mov	eax, DWORD PTR _s$[ebp]
	mov	DWORD PTR [eax+20], edx

; 718  :                 put_byte(s, s->level == 9 ? 2 :
; 719  :                             (s->strategy >= Z_HUFFMAN_ONLY || s->level < 2 ?
; 720  :                              4 : 0));

	mov	eax, DWORD PTR _s$[ebp]
	cmp	DWORD PTR [eax+132], 9
	jne	SHORT $LN92@deflate
	mov	DWORD PTR tv286[ebp], 2
	jmp	SHORT $LN93@deflate
$LN92@deflate:
	mov	ecx, DWORD PTR _s$[ebp]
	cmp	DWORD PTR [ecx+136], 2
	jge	SHORT $LN90@deflate
	mov	edx, DWORD PTR _s$[ebp]
	cmp	DWORD PTR [edx+132], 2
	jl	SHORT $LN90@deflate
	mov	DWORD PTR tv285[ebp], 0
	jmp	SHORT $LN91@deflate
$LN90@deflate:
	mov	DWORD PTR tv285[ebp], 4
$LN91@deflate:
	mov	eax, DWORD PTR tv285[ebp]
	mov	DWORD PTR tv286[ebp], eax
$LN93@deflate:
	mov	ecx, DWORD PTR _s$[ebp]
	mov	edx, DWORD PTR [ecx+8]
	mov	eax, DWORD PTR _s$[ebp]
	mov	ecx, DWORD PTR [eax+20]
	mov	al, BYTE PTR tv286[ebp]
	mov	BYTE PTR [edx+ecx], al
	mov	ecx, DWORD PTR _s$[ebp]
	mov	edx, DWORD PTR [ecx+20]
	add	edx, 1
	mov	eax, DWORD PTR _s$[ebp]
	mov	DWORD PTR [eax+20], edx

; 721  :                 put_byte(s, s->gzhead->os & 0xff);

	mov	eax, DWORD PTR _s$[ebp]
	mov	ecx, DWORD PTR [eax+28]
	mov	edx, DWORD PTR [ecx+12]
	and	edx, 255				; 000000ffH
	mov	eax, DWORD PTR _s$[ebp]
	mov	ecx, DWORD PTR [eax+8]
	mov	eax, DWORD PTR _s$[ebp]
	mov	eax, DWORD PTR [eax+20]
	mov	BYTE PTR [ecx+eax], dl
	mov	ecx, DWORD PTR _s$[ebp]
	mov	edx, DWORD PTR [ecx+20]
	add	edx, 1
	mov	eax, DWORD PTR _s$[ebp]
	mov	DWORD PTR [eax+20], edx

; 722  :                 if (s->gzhead->extra != Z_NULL) {

	mov	eax, DWORD PTR _s$[ebp]
	mov	ecx, DWORD PTR [eax+28]
	cmp	DWORD PTR [ecx+16], 0
	je	SHORT $LN73@deflate

; 723  :                     put_byte(s, s->gzhead->extra_len & 0xff);

	mov	eax, DWORD PTR _s$[ebp]
	mov	ecx, DWORD PTR [eax+28]
	mov	edx, DWORD PTR [ecx+20]
	and	edx, 255				; 000000ffH
	mov	eax, DWORD PTR _s$[ebp]
	mov	ecx, DWORD PTR [eax+8]
	mov	eax, DWORD PTR _s$[ebp]
	mov	eax, DWORD PTR [eax+20]
	mov	BYTE PTR [ecx+eax], dl
	mov	ecx, DWORD PTR _s$[ebp]
	mov	edx, DWORD PTR [ecx+20]
	add	edx, 1
	mov	eax, DWORD PTR _s$[ebp]
	mov	DWORD PTR [eax+20], edx

; 724  :                     put_byte(s, (s->gzhead->extra_len >> 8) & 0xff);

	mov	eax, DWORD PTR _s$[ebp]
	mov	ecx, DWORD PTR [eax+28]
	mov	edx, DWORD PTR [ecx+20]
	shr	edx, 8
	and	edx, 255				; 000000ffH
	mov	eax, DWORD PTR _s$[ebp]
	mov	ecx, DWORD PTR [eax+8]
	mov	eax, DWORD PTR _s$[ebp]
	mov	eax, DWORD PTR [eax+20]
	mov	BYTE PTR [ecx+eax], dl
	mov	ecx, DWORD PTR _s$[ebp]
	mov	edx, DWORD PTR [ecx+20]
	add	edx, 1
	mov	eax, DWORD PTR _s$[ebp]
	mov	DWORD PTR [eax+20], edx
$LN73@deflate:

; 725  :                 }
; 726  :                 if (s->gzhead->hcrc)

	mov	eax, DWORD PTR _s$[ebp]
	mov	ecx, DWORD PTR [eax+28]
	cmp	DWORD PTR [ecx+44], 0
	je	SHORT $LN72@deflate

; 727  :                     strm->adler = crc32(strm->adler, s->pending_buf,
; 728  :                                         s->pending);

	mov	eax, DWORD PTR _s$[ebp]
	mov	ecx, DWORD PTR [eax+20]
	push	ecx
	mov	edx, DWORD PTR _s$[ebp]
	mov	eax, DWORD PTR [edx+8]
	push	eax
	mov	ecx, DWORD PTR _strm$[ebp]
	mov	edx, DWORD PTR [ecx+48]
	push	edx
	call	_crc32@12
	mov	ecx, DWORD PTR _strm$[ebp]
	mov	DWORD PTR [ecx+48], eax
$LN72@deflate:

; 729  :                 s->gzindex = 0;

	mov	eax, DWORD PTR _s$[ebp]
	mov	DWORD PTR [eax+32], 0

; 730  :                 s->status = EXTRA_STATE;

	mov	eax, DWORD PTR _s$[ebp]
	mov	DWORD PTR [eax+4], 69			; 00000045H
$LN74@deflate:

; 731  :             }
; 732  :         }
; 733  :         else

	jmp	$LN77@deflate
$LN76@deflate:

; 734  : #endif
; 735  :         {
; 736  :             uInt header = (Z_DEFLATED + ((s->w_bits-8)<<4)) << 8;

	mov	eax, DWORD PTR _s$[ebp]
	mov	ecx, DWORD PTR [eax+48]
	sub	ecx, 8
	shl	ecx, 4
	add	ecx, 8
	shl	ecx, 8
	mov	DWORD PTR _header$80663[ebp], ecx

; 737  :             uInt level_flags;
; 738  : 
; 739  :             if (s->strategy >= Z_HUFFMAN_ONLY || s->level < 2)

	mov	eax, DWORD PTR _s$[ebp]
	cmp	DWORD PTR [eax+136], 2
	jge	SHORT $LN69@deflate
	mov	eax, DWORD PTR _s$[ebp]
	cmp	DWORD PTR [eax+132], 2
	jge	SHORT $LN70@deflate
$LN69@deflate:

; 740  :                 level_flags = 0;

	mov	DWORD PTR _level_flags$80664[ebp], 0
	jmp	SHORT $LN68@deflate
$LN70@deflate:

; 741  :             else if (s->level < 6)

	mov	eax, DWORD PTR _s$[ebp]
	cmp	DWORD PTR [eax+132], 6
	jge	SHORT $LN67@deflate

; 742  :                 level_flags = 1;

	mov	DWORD PTR _level_flags$80664[ebp], 1
	jmp	SHORT $LN68@deflate
$LN67@deflate:

; 743  :             else if (s->level == 6)

	mov	eax, DWORD PTR _s$[ebp]
	cmp	DWORD PTR [eax+132], 6
	jne	SHORT $LN65@deflate

; 744  :                 level_flags = 2;

	mov	DWORD PTR _level_flags$80664[ebp], 2

; 745  :             else

	jmp	SHORT $LN68@deflate
$LN65@deflate:

; 746  :                 level_flags = 3;

	mov	DWORD PTR _level_flags$80664[ebp], 3
$LN68@deflate:

; 747  :             header |= (level_flags << 6);

	mov	eax, DWORD PTR _level_flags$80664[ebp]
	shl	eax, 6
	or	eax, DWORD PTR _header$80663[ebp]
	mov	DWORD PTR _header$80663[ebp], eax

; 748  :             if (s->strstart != 0) header |= PRESET_DICT;

	mov	eax, DWORD PTR _s$[ebp]
	cmp	DWORD PTR [eax+108], 0
	je	SHORT $LN63@deflate
	mov	eax, DWORD PTR _header$80663[ebp]
	or	eax, 32					; 00000020H
	mov	DWORD PTR _header$80663[ebp], eax
$LN63@deflate:

; 749  :             header += 31 - (header % 31);

	mov	eax, DWORD PTR _header$80663[ebp]
	xor	edx, edx
	mov	ecx, 31					; 0000001fH
	div	ecx
	mov	eax, 31					; 0000001fH
	sub	eax, edx
	add	eax, DWORD PTR _header$80663[ebp]
	mov	DWORD PTR _header$80663[ebp], eax

; 750  : 
; 751  :             s->status = BUSY_STATE;

	mov	eax, DWORD PTR _s$[ebp]
	mov	DWORD PTR [eax+4], 113			; 00000071H

; 752  :             putShortMSB(s, header);

	mov	eax, DWORD PTR _header$80663[ebp]
	push	eax
	mov	ecx, DWORD PTR _s$[ebp]
	push	ecx
	call	_putShortMSB
	add	esp, 8

; 753  : 
; 754  :             /* Save the adler32 of the preset dictionary: */
; 755  :             if (s->strstart != 0) {

	mov	eax, DWORD PTR _s$[ebp]
	cmp	DWORD PTR [eax+108], 0
	je	SHORT $LN62@deflate

; 756  :                 putShortMSB(s, (uInt)(strm->adler >> 16));

	mov	eax, DWORD PTR _strm$[ebp]
	mov	ecx, DWORD PTR [eax+48]
	shr	ecx, 16					; 00000010H
	push	ecx
	mov	edx, DWORD PTR _s$[ebp]
	push	edx
	call	_putShortMSB
	add	esp, 8

; 757  :                 putShortMSB(s, (uInt)(strm->adler & 0xffff));

	mov	eax, DWORD PTR _strm$[ebp]
	mov	ecx, DWORD PTR [eax+48]
	and	ecx, 65535				; 0000ffffH
	push	ecx
	mov	edx, DWORD PTR _s$[ebp]
	push	edx
	call	_putShortMSB
	add	esp, 8
$LN62@deflate:

; 758  :             }
; 759  :             strm->adler = adler32(0L, Z_NULL, 0);

	push	0
	push	0
	push	0
	call	_adler32@12
	mov	ecx, DWORD PTR _strm$[ebp]
	mov	DWORD PTR [ecx+48], eax
$LN77@deflate:

; 760  :         }
; 761  :     }
; 762  : #ifdef GZIP
; 763  :     if (s->status == EXTRA_STATE) {

	mov	eax, DWORD PTR _s$[ebp]
	cmp	DWORD PTR [eax+4], 69			; 00000045H
	jne	$LN61@deflate

; 764  :         if (s->gzhead->extra != Z_NULL) {

	mov	eax, DWORD PTR _s$[ebp]
	mov	ecx, DWORD PTR [eax+28]
	cmp	DWORD PTR [ecx+16], 0
	je	$LN60@deflate

; 765  :             uInt beg = s->pending;  /* start of bytes to update crc */

	mov	eax, DWORD PTR _s$[ebp]
	mov	ecx, DWORD PTR [eax+20]
	mov	DWORD PTR _beg$80678[ebp], ecx
$LN59@deflate:

; 766  : 
; 767  :             while (s->gzindex < (s->gzhead->extra_len & 0xffff)) {

	mov	eax, DWORD PTR _s$[ebp]
	mov	ecx, DWORD PTR [eax+28]
	mov	edx, DWORD PTR [ecx+20]
	and	edx, 65535				; 0000ffffH
	mov	eax, DWORD PTR _s$[ebp]
	cmp	DWORD PTR [eax+32], edx
	jae	$LN58@deflate

; 768  :                 if (s->pending == s->pending_buf_size) {

	mov	eax, DWORD PTR _s$[ebp]
	mov	ecx, DWORD PTR _s$[ebp]
	mov	edx, DWORD PTR [eax+20]
	cmp	edx, DWORD PTR [ecx+12]
	jne	SHORT $LN57@deflate

; 769  :                     if (s->gzhead->hcrc && s->pending > beg)

	mov	eax, DWORD PTR _s$[ebp]
	mov	ecx, DWORD PTR [eax+28]
	cmp	DWORD PTR [ecx+44], 0
	je	SHORT $LN56@deflate
	mov	eax, DWORD PTR _s$[ebp]
	mov	ecx, DWORD PTR [eax+20]
	cmp	ecx, DWORD PTR _beg$80678[ebp]
	jbe	SHORT $LN56@deflate

; 770  :                         strm->adler = crc32(strm->adler, s->pending_buf + beg,
; 771  :                                             s->pending - beg);

	mov	eax, DWORD PTR _s$[ebp]
	mov	ecx, DWORD PTR [eax+20]
	sub	ecx, DWORD PTR _beg$80678[ebp]
	push	ecx
	mov	edx, DWORD PTR _s$[ebp]
	mov	eax, DWORD PTR [edx+8]
	add	eax, DWORD PTR _beg$80678[ebp]
	push	eax
	mov	ecx, DWORD PTR _strm$[ebp]
	mov	edx, DWORD PTR [ecx+48]
	push	edx
	call	_crc32@12
	mov	ecx, DWORD PTR _strm$[ebp]
	mov	DWORD PTR [ecx+48], eax
$LN56@deflate:

; 772  :                     flush_pending(strm);

	mov	eax, DWORD PTR _strm$[ebp]
	push	eax
	call	_flush_pending
	add	esp, 4

; 773  :                     beg = s->pending;

	mov	eax, DWORD PTR _s$[ebp]
	mov	ecx, DWORD PTR [eax+20]
	mov	DWORD PTR _beg$80678[ebp], ecx

; 774  :                     if (s->pending == s->pending_buf_size)

	mov	eax, DWORD PTR _s$[ebp]
	mov	ecx, DWORD PTR _s$[ebp]
	mov	edx, DWORD PTR [eax+20]
	cmp	edx, DWORD PTR [ecx+12]
	jne	SHORT $LN57@deflate

; 775  :                         break;

	jmp	SHORT $LN58@deflate
$LN57@deflate:

; 776  :                 }
; 777  :                 put_byte(s, s->gzhead->extra[s->gzindex]);

	mov	eax, DWORD PTR _s$[ebp]
	mov	ecx, DWORD PTR [eax+28]
	mov	edx, DWORD PTR [ecx+16]
	mov	eax, DWORD PTR _s$[ebp]
	mov	ecx, DWORD PTR [eax+32]
	mov	eax, DWORD PTR _s$[ebp]
	mov	eax, DWORD PTR [eax+8]
	mov	esi, DWORD PTR _s$[ebp]
	mov	esi, DWORD PTR [esi+20]
	mov	cl, BYTE PTR [edx+ecx]
	mov	BYTE PTR [eax+esi], cl
	mov	edx, DWORD PTR _s$[ebp]
	mov	eax, DWORD PTR [edx+20]
	add	eax, 1
	mov	ecx, DWORD PTR _s$[ebp]
	mov	DWORD PTR [ecx+20], eax

; 778  :                 s->gzindex++;

	mov	eax, DWORD PTR _s$[ebp]
	mov	ecx, DWORD PTR [eax+32]
	add	ecx, 1
	mov	edx, DWORD PTR _s$[ebp]
	mov	DWORD PTR [edx+32], ecx

; 779  :             }

	jmp	$LN59@deflate
$LN58@deflate:

; 780  :             if (s->gzhead->hcrc && s->pending > beg)

	mov	eax, DWORD PTR _s$[ebp]
	mov	ecx, DWORD PTR [eax+28]
	cmp	DWORD PTR [ecx+44], 0
	je	SHORT $LN54@deflate
	mov	eax, DWORD PTR _s$[ebp]
	mov	ecx, DWORD PTR [eax+20]
	cmp	ecx, DWORD PTR _beg$80678[ebp]
	jbe	SHORT $LN54@deflate

; 781  :                 strm->adler = crc32(strm->adler, s->pending_buf + beg,
; 782  :                                     s->pending - beg);

	mov	eax, DWORD PTR _s$[ebp]
	mov	ecx, DWORD PTR [eax+20]
	sub	ecx, DWORD PTR _beg$80678[ebp]
	push	ecx
	mov	edx, DWORD PTR _s$[ebp]
	mov	eax, DWORD PTR [edx+8]
	add	eax, DWORD PTR _beg$80678[ebp]
	push	eax
	mov	ecx, DWORD PTR _strm$[ebp]
	mov	edx, DWORD PTR [ecx+48]
	push	edx
	call	_crc32@12
	mov	ecx, DWORD PTR _strm$[ebp]
	mov	DWORD PTR [ecx+48], eax
$LN54@deflate:

; 783  :             if (s->gzindex == s->gzhead->extra_len) {

	mov	eax, DWORD PTR _s$[ebp]
	mov	ecx, DWORD PTR [eax+28]
	mov	edx, DWORD PTR _s$[ebp]
	mov	eax, DWORD PTR [edx+32]
	cmp	eax, DWORD PTR [ecx+20]
	jne	SHORT $LN53@deflate

; 784  :                 s->gzindex = 0;

	mov	eax, DWORD PTR _s$[ebp]
	mov	DWORD PTR [eax+32], 0

; 785  :                 s->status = NAME_STATE;

	mov	eax, DWORD PTR _s$[ebp]
	mov	DWORD PTR [eax+4], 73			; 00000049H
$LN53@deflate:

; 786  :             }
; 787  :         }
; 788  :         else

	jmp	SHORT $LN61@deflate
$LN60@deflate:

; 789  :             s->status = NAME_STATE;

	mov	eax, DWORD PTR _s$[ebp]
	mov	DWORD PTR [eax+4], 73			; 00000049H
$LN61@deflate:

; 790  :     }
; 791  :     if (s->status == NAME_STATE) {

	mov	eax, DWORD PTR _s$[ebp]
	cmp	DWORD PTR [eax+4], 73			; 00000049H
	jne	$LN51@deflate

; 792  :         if (s->gzhead->name != Z_NULL) {

	mov	eax, DWORD PTR _s$[ebp]
	mov	ecx, DWORD PTR [eax+28]
	cmp	DWORD PTR [ecx+28], 0
	je	$LN50@deflate

; 793  :             uInt beg = s->pending;  /* start of bytes to update crc */

	mov	eax, DWORD PTR _s$[ebp]
	mov	ecx, DWORD PTR [eax+20]
	mov	DWORD PTR _beg$80690[ebp], ecx
$LN49@deflate:

; 794  :             int val;
; 795  : 
; 796  :             do {
; 797  :                 if (s->pending == s->pending_buf_size) {

	mov	eax, DWORD PTR _s$[ebp]
	mov	ecx, DWORD PTR _s$[ebp]
	mov	edx, DWORD PTR [eax+20]
	cmp	edx, DWORD PTR [ecx+12]
	jne	SHORT $LN46@deflate

; 798  :                     if (s->gzhead->hcrc && s->pending > beg)

	mov	eax, DWORD PTR _s$[ebp]
	mov	ecx, DWORD PTR [eax+28]
	cmp	DWORD PTR [ecx+44], 0
	je	SHORT $LN45@deflate
	mov	eax, DWORD PTR _s$[ebp]
	mov	ecx, DWORD PTR [eax+20]
	cmp	ecx, DWORD PTR _beg$80690[ebp]
	jbe	SHORT $LN45@deflate

; 799  :                         strm->adler = crc32(strm->adler, s->pending_buf + beg,
; 800  :                                             s->pending - beg);

	mov	eax, DWORD PTR _s$[ebp]
	mov	ecx, DWORD PTR [eax+20]
	sub	ecx, DWORD PTR _beg$80690[ebp]
	push	ecx
	mov	edx, DWORD PTR _s$[ebp]
	mov	eax, DWORD PTR [edx+8]
	add	eax, DWORD PTR _beg$80690[ebp]
	push	eax
	mov	ecx, DWORD PTR _strm$[ebp]
	mov	edx, DWORD PTR [ecx+48]
	push	edx
	call	_crc32@12
	mov	ecx, DWORD PTR _strm$[ebp]
	mov	DWORD PTR [ecx+48], eax
$LN45@deflate:

; 801  :                     flush_pending(strm);

	mov	eax, DWORD PTR _strm$[ebp]
	push	eax
	call	_flush_pending
	add	esp, 4

; 802  :                     beg = s->pending;

	mov	eax, DWORD PTR _s$[ebp]
	mov	ecx, DWORD PTR [eax+20]
	mov	DWORD PTR _beg$80690[ebp], ecx

; 803  :                     if (s->pending == s->pending_buf_size) {

	mov	eax, DWORD PTR _s$[ebp]
	mov	ecx, DWORD PTR _s$[ebp]
	mov	edx, DWORD PTR [eax+20]
	cmp	edx, DWORD PTR [ecx+12]
	jne	SHORT $LN46@deflate

; 804  :                         val = 1;

	mov	DWORD PTR _val$80691[ebp], 1

; 805  :                         break;

	jmp	SHORT $LN47@deflate
$LN46@deflate:

; 806  :                     }
; 807  :                 }
; 808  :                 val = s->gzhead->name[s->gzindex++];

	mov	eax, DWORD PTR _s$[ebp]
	mov	ecx, DWORD PTR [eax+28]
	mov	edx, DWORD PTR [ecx+28]
	mov	eax, DWORD PTR _s$[ebp]
	mov	ecx, DWORD PTR [eax+32]
	movzx	edx, BYTE PTR [edx+ecx]
	mov	DWORD PTR _val$80691[ebp], edx
	mov	eax, DWORD PTR _s$[ebp]
	mov	ecx, DWORD PTR [eax+32]
	add	ecx, 1
	mov	edx, DWORD PTR _s$[ebp]
	mov	DWORD PTR [edx+32], ecx

; 809  :                 put_byte(s, val);

	mov	eax, DWORD PTR _s$[ebp]
	mov	ecx, DWORD PTR [eax+8]
	mov	edx, DWORD PTR _s$[ebp]
	mov	eax, DWORD PTR [edx+20]
	mov	dl, BYTE PTR _val$80691[ebp]
	mov	BYTE PTR [ecx+eax], dl
	mov	eax, DWORD PTR _s$[ebp]
	mov	ecx, DWORD PTR [eax+20]
	add	ecx, 1
	mov	edx, DWORD PTR _s$[ebp]
	mov	DWORD PTR [edx+20], ecx

; 810  :             } while (val != 0);

	cmp	DWORD PTR _val$80691[ebp], 0
	jne	$LN49@deflate
$LN47@deflate:

; 811  :             if (s->gzhead->hcrc && s->pending > beg)

	mov	eax, DWORD PTR _s$[ebp]
	mov	ecx, DWORD PTR [eax+28]
	cmp	DWORD PTR [ecx+44], 0
	je	SHORT $LN43@deflate
	mov	eax, DWORD PTR _s$[ebp]
	mov	ecx, DWORD PTR [eax+20]
	cmp	ecx, DWORD PTR _beg$80690[ebp]
	jbe	SHORT $LN43@deflate

; 812  :                 strm->adler = crc32(strm->adler, s->pending_buf + beg,
; 813  :                                     s->pending - beg);

	mov	eax, DWORD PTR _s$[ebp]
	mov	ecx, DWORD PTR [eax+20]
	sub	ecx, DWORD PTR _beg$80690[ebp]
	push	ecx
	mov	edx, DWORD PTR _s$[ebp]
	mov	eax, DWORD PTR [edx+8]
	add	eax, DWORD PTR _beg$80690[ebp]
	push	eax
	mov	ecx, DWORD PTR _strm$[ebp]
	mov	edx, DWORD PTR [ecx+48]
	push	edx
	call	_crc32@12
	mov	ecx, DWORD PTR _strm$[ebp]
	mov	DWORD PTR [ecx+48], eax
$LN43@deflate:

; 814  :             if (val == 0) {

	cmp	DWORD PTR _val$80691[ebp], 0
	jne	SHORT $LN42@deflate

; 815  :                 s->gzindex = 0;

	mov	eax, DWORD PTR _s$[ebp]
	mov	DWORD PTR [eax+32], 0

; 816  :                 s->status = COMMENT_STATE;

	mov	eax, DWORD PTR _s$[ebp]
	mov	DWORD PTR [eax+4], 91			; 0000005bH
$LN42@deflate:

; 817  :             }
; 818  :         }
; 819  :         else

	jmp	SHORT $LN51@deflate
$LN50@deflate:

; 820  :             s->status = COMMENT_STATE;

	mov	eax, DWORD PTR _s$[ebp]
	mov	DWORD PTR [eax+4], 91			; 0000005bH
$LN51@deflate:

; 821  :     }
; 822  :     if (s->status == COMMENT_STATE) {

	mov	eax, DWORD PTR _s$[ebp]
	cmp	DWORD PTR [eax+4], 91			; 0000005bH
	jne	$LN40@deflate

; 823  :         if (s->gzhead->comment != Z_NULL) {

	mov	eax, DWORD PTR _s$[ebp]
	mov	ecx, DWORD PTR [eax+28]
	cmp	DWORD PTR [ecx+36], 0
	je	$LN39@deflate

; 824  :             uInt beg = s->pending;  /* start of bytes to update crc */

	mov	eax, DWORD PTR _s$[ebp]
	mov	ecx, DWORD PTR [eax+20]
	mov	DWORD PTR _beg$80703[ebp], ecx
$LN38@deflate:

; 825  :             int val;
; 826  : 
; 827  :             do {
; 828  :                 if (s->pending == s->pending_buf_size) {

	mov	eax, DWORD PTR _s$[ebp]
	mov	ecx, DWORD PTR _s$[ebp]
	mov	edx, DWORD PTR [eax+20]
	cmp	edx, DWORD PTR [ecx+12]
	jne	SHORT $LN35@deflate

; 829  :                     if (s->gzhead->hcrc && s->pending > beg)

	mov	eax, DWORD PTR _s$[ebp]
	mov	ecx, DWORD PTR [eax+28]
	cmp	DWORD PTR [ecx+44], 0
	je	SHORT $LN34@deflate
	mov	eax, DWORD PTR _s$[ebp]
	mov	ecx, DWORD PTR [eax+20]
	cmp	ecx, DWORD PTR _beg$80703[ebp]
	jbe	SHORT $LN34@deflate

; 830  :                         strm->adler = crc32(strm->adler, s->pending_buf + beg,
; 831  :                                             s->pending - beg);

	mov	eax, DWORD PTR _s$[ebp]
	mov	ecx, DWORD PTR [eax+20]
	sub	ecx, DWORD PTR _beg$80703[ebp]
	push	ecx
	mov	edx, DWORD PTR _s$[ebp]
	mov	eax, DWORD PTR [edx+8]
	add	eax, DWORD PTR _beg$80703[ebp]
	push	eax
	mov	ecx, DWORD PTR _strm$[ebp]
	mov	edx, DWORD PTR [ecx+48]
	push	edx
	call	_crc32@12
	mov	ecx, DWORD PTR _strm$[ebp]
	mov	DWORD PTR [ecx+48], eax
$LN34@deflate:

; 832  :                     flush_pending(strm);

	mov	eax, DWORD PTR _strm$[ebp]
	push	eax
	call	_flush_pending
	add	esp, 4

; 833  :                     beg = s->pending;

	mov	eax, DWORD PTR _s$[ebp]
	mov	ecx, DWORD PTR [eax+20]
	mov	DWORD PTR _beg$80703[ebp], ecx

; 834  :                     if (s->pending == s->pending_buf_size) {

	mov	eax, DWORD PTR _s$[ebp]
	mov	ecx, DWORD PTR _s$[ebp]
	mov	edx, DWORD PTR [eax+20]
	cmp	edx, DWORD PTR [ecx+12]
	jne	SHORT $LN35@deflate

; 835  :                         val = 1;

	mov	DWORD PTR _val$80704[ebp], 1

; 836  :                         break;

	jmp	SHORT $LN36@deflate
$LN35@deflate:

; 837  :                     }
; 838  :                 }
; 839  :                 val = s->gzhead->comment[s->gzindex++];

	mov	eax, DWORD PTR _s$[ebp]
	mov	ecx, DWORD PTR [eax+28]
	mov	edx, DWORD PTR [ecx+36]
	mov	eax, DWORD PTR _s$[ebp]
	mov	ecx, DWORD PTR [eax+32]
	movzx	edx, BYTE PTR [edx+ecx]
	mov	DWORD PTR _val$80704[ebp], edx
	mov	eax, DWORD PTR _s$[ebp]
	mov	ecx, DWORD PTR [eax+32]
	add	ecx, 1
	mov	edx, DWORD PTR _s$[ebp]
	mov	DWORD PTR [edx+32], ecx

; 840  :                 put_byte(s, val);

	mov	eax, DWORD PTR _s$[ebp]
	mov	ecx, DWORD PTR [eax+8]
	mov	edx, DWORD PTR _s$[ebp]
	mov	eax, DWORD PTR [edx+20]
	mov	dl, BYTE PTR _val$80704[ebp]
	mov	BYTE PTR [ecx+eax], dl
	mov	eax, DWORD PTR _s$[ebp]
	mov	ecx, DWORD PTR [eax+20]
	add	ecx, 1
	mov	edx, DWORD PTR _s$[ebp]
	mov	DWORD PTR [edx+20], ecx

; 841  :             } while (val != 0);

	cmp	DWORD PTR _val$80704[ebp], 0
	jne	$LN38@deflate
$LN36@deflate:

; 842  :             if (s->gzhead->hcrc && s->pending > beg)

	mov	eax, DWORD PTR _s$[ebp]
	mov	ecx, DWORD PTR [eax+28]
	cmp	DWORD PTR [ecx+44], 0
	je	SHORT $LN32@deflate
	mov	eax, DWORD PTR _s$[ebp]
	mov	ecx, DWORD PTR [eax+20]
	cmp	ecx, DWORD PTR _beg$80703[ebp]
	jbe	SHORT $LN32@deflate

; 843  :                 strm->adler = crc32(strm->adler, s->pending_buf + beg,
; 844  :                                     s->pending - beg);

	mov	eax, DWORD PTR _s$[ebp]
	mov	ecx, DWORD PTR [eax+20]
	sub	ecx, DWORD PTR _beg$80703[ebp]
	push	ecx
	mov	edx, DWORD PTR _s$[ebp]
	mov	eax, DWORD PTR [edx+8]
	add	eax, DWORD PTR _beg$80703[ebp]
	push	eax
	mov	ecx, DWORD PTR _strm$[ebp]
	mov	edx, DWORD PTR [ecx+48]
	push	edx
	call	_crc32@12
	mov	ecx, DWORD PTR _strm$[ebp]
	mov	DWORD PTR [ecx+48], eax
$LN32@deflate:

; 845  :             if (val == 0)

	cmp	DWORD PTR _val$80704[ebp], 0
	jne	SHORT $LN31@deflate

; 846  :                 s->status = HCRC_STATE;

	mov	eax, DWORD PTR _s$[ebp]
	mov	DWORD PTR [eax+4], 103			; 00000067H
$LN31@deflate:

; 847  :         }
; 848  :         else

	jmp	SHORT $LN40@deflate
$LN39@deflate:

; 849  :             s->status = HCRC_STATE;

	mov	eax, DWORD PTR _s$[ebp]
	mov	DWORD PTR [eax+4], 103			; 00000067H
$LN40@deflate:

; 850  :     }
; 851  :     if (s->status == HCRC_STATE) {

	mov	eax, DWORD PTR _s$[ebp]
	cmp	DWORD PTR [eax+4], 103			; 00000067H
	jne	$LN29@deflate

; 852  :         if (s->gzhead->hcrc) {

	mov	eax, DWORD PTR _s$[ebp]
	mov	ecx, DWORD PTR [eax+28]
	cmp	DWORD PTR [ecx+44], 0
	je	$LN28@deflate

; 853  :             if (s->pending + 2 > s->pending_buf_size)

	mov	eax, DWORD PTR _s$[ebp]
	mov	ecx, DWORD PTR [eax+20]
	add	ecx, 2
	mov	edx, DWORD PTR _s$[ebp]
	cmp	ecx, DWORD PTR [edx+12]
	jbe	SHORT $LN27@deflate

; 854  :                 flush_pending(strm);

	mov	eax, DWORD PTR _strm$[ebp]
	push	eax
	call	_flush_pending
	add	esp, 4
$LN27@deflate:

; 855  :             if (s->pending + 2 <= s->pending_buf_size) {

	mov	eax, DWORD PTR _s$[ebp]
	mov	ecx, DWORD PTR [eax+20]
	add	ecx, 2
	mov	edx, DWORD PTR _s$[ebp]
	cmp	ecx, DWORD PTR [edx+12]
	ja	SHORT $LN26@deflate

; 856  :                 put_byte(s, (Byte)(strm->adler & 0xff));

	mov	eax, DWORD PTR _strm$[ebp]
	mov	ecx, DWORD PTR [eax+48]
	and	ecx, 255				; 000000ffH
	mov	edx, DWORD PTR _s$[ebp]
	mov	eax, DWORD PTR [edx+8]
	mov	edx, DWORD PTR _s$[ebp]
	mov	edx, DWORD PTR [edx+20]
	mov	BYTE PTR [eax+edx], cl
	mov	eax, DWORD PTR _s$[ebp]
	mov	ecx, DWORD PTR [eax+20]
	add	ecx, 1
	mov	edx, DWORD PTR _s$[ebp]
	mov	DWORD PTR [edx+20], ecx

; 857  :                 put_byte(s, (Byte)((strm->adler >> 8) & 0xff));

	mov	eax, DWORD PTR _strm$[ebp]
	mov	ecx, DWORD PTR [eax+48]
	shr	ecx, 8
	and	ecx, 255				; 000000ffH
	mov	edx, DWORD PTR _s$[ebp]
	mov	eax, DWORD PTR [edx+8]
	mov	edx, DWORD PTR _s$[ebp]
	mov	edx, DWORD PTR [edx+20]
	mov	BYTE PTR [eax+edx], cl
	mov	eax, DWORD PTR _s$[ebp]
	mov	ecx, DWORD PTR [eax+20]
	add	ecx, 1
	mov	edx, DWORD PTR _s$[ebp]
	mov	DWORD PTR [edx+20], ecx

; 858  :                 strm->adler = crc32(0L, Z_NULL, 0);

	push	0
	push	0
	push	0
	call	_crc32@12
	mov	ecx, DWORD PTR _strm$[ebp]
	mov	DWORD PTR [ecx+48], eax

; 859  :                 s->status = BUSY_STATE;

	mov	eax, DWORD PTR _s$[ebp]
	mov	DWORD PTR [eax+4], 113			; 00000071H
$LN26@deflate:

; 860  :             }
; 861  :         }
; 862  :         else

	jmp	SHORT $LN29@deflate
$LN28@deflate:

; 863  :             s->status = BUSY_STATE;

	mov	eax, DWORD PTR _s$[ebp]
	mov	DWORD PTR [eax+4], 113			; 00000071H
$LN29@deflate:

; 864  :     }
; 865  : #endif
; 866  : 
; 867  :     /* Flush as much pending output as possible */
; 868  :     if (s->pending != 0) {

	mov	eax, DWORD PTR _s$[ebp]
	cmp	DWORD PTR [eax+20], 0
	je	SHORT $LN24@deflate

; 869  :         flush_pending(strm);

	mov	eax, DWORD PTR _strm$[ebp]
	push	eax
	call	_flush_pending
	add	esp, 4

; 870  :         if (strm->avail_out == 0) {

	mov	eax, DWORD PTR _strm$[ebp]
	cmp	DWORD PTR [eax+16], 0
	jne	SHORT $LN23@deflate

; 871  :             /* Since avail_out is 0, deflate will be called again with
; 872  :              * more output space, but possibly with both pending and
; 873  :              * avail_in equal to zero. There won't be anything to do,
; 874  :              * but this is not an error situation so make sure we
; 875  :              * return OK instead of BUF_ERROR at next call of deflate:
; 876  :              */
; 877  :             s->last_flush = -1;

	mov	eax, DWORD PTR _s$[ebp]
	mov	DWORD PTR [eax+40], -1

; 878  :             return Z_OK;

	xor	eax, eax
	jmp	$LN84@deflate
$LN23@deflate:

; 879  :         }
; 880  : 
; 881  :     /* Make sure there is something to do and avoid duplicate consecutive
; 882  :      * flushes. For repeated and useless calls with Z_FINISH, we keep
; 883  :      * returning Z_STREAM_END instead of Z_BUF_ERROR.
; 884  :      */
; 885  :     } else if (strm->avail_in == 0 && RANK(flush) <= RANK(old_flush) &&

	jmp	SHORT $LN22@deflate
$LN24@deflate:

; 886  :                flush != Z_FINISH) {

	mov	eax, DWORD PTR _strm$[ebp]
	cmp	DWORD PTR [eax+4], 0
	jne	SHORT $LN22@deflate
	mov	eax, DWORD PTR _flush$[ebp]
	shl	eax, 1
	xor	ecx, ecx
	cmp	DWORD PTR _flush$[ebp], 4
	setle	cl
	sub	ecx, 1
	and	ecx, 9
	sub	eax, ecx
	mov	edx, DWORD PTR _old_flush$[ebp]
	shl	edx, 1
	xor	ecx, ecx
	cmp	DWORD PTR _old_flush$[ebp], 4
	setle	cl
	sub	ecx, 1
	and	ecx, 9
	sub	edx, ecx
	cmp	eax, edx
	jg	SHORT $LN22@deflate
	cmp	DWORD PTR _flush$[ebp], 4
	je	SHORT $LN22@deflate

; 887  :         ERR_RETURN(strm, Z_BUF_ERROR);

	mov	eax, DWORD PTR _strm$[ebp]
	mov	ecx, DWORD PTR _z_errmsg+28
	mov	DWORD PTR [eax+24], ecx
	mov	eax, -5					; fffffffbH
	jmp	$LN84@deflate
$LN22@deflate:

; 888  :     }
; 889  : 
; 890  :     /* User must not provide more input after the first FINISH: */
; 891  :     if (s->status == FINISH_STATE && strm->avail_in != 0) {

	mov	eax, DWORD PTR _s$[ebp]
	cmp	DWORD PTR [eax+4], 666			; 0000029aH
	jne	SHORT $LN20@deflate
	mov	eax, DWORD PTR _strm$[ebp]
	cmp	DWORD PTR [eax+4], 0
	je	SHORT $LN20@deflate

; 892  :         ERR_RETURN(strm, Z_BUF_ERROR);

	mov	eax, DWORD PTR _strm$[ebp]
	mov	ecx, DWORD PTR _z_errmsg+28
	mov	DWORD PTR [eax+24], ecx
	mov	eax, -5					; fffffffbH
	jmp	$LN84@deflate
$LN20@deflate:

; 893  :     }
; 894  : 
; 895  :     /* Start a new block or continue the current one.
; 896  :      */
; 897  :     if (strm->avail_in != 0 || s->lookahead != 0 ||
; 898  :         (flush != Z_NO_FLUSH && s->status != FINISH_STATE)) {

	mov	eax, DWORD PTR _strm$[ebp]
	cmp	DWORD PTR [eax+4], 0
	jne	SHORT $LN18@deflate
	mov	eax, DWORD PTR _s$[ebp]
	cmp	DWORD PTR [eax+116], 0
	jne	SHORT $LN18@deflate
	cmp	DWORD PTR _flush$[ebp], 0
	je	$LN19@deflate
	mov	eax, DWORD PTR _s$[ebp]
	cmp	DWORD PTR [eax+4], 666			; 0000029aH
	je	$LN19@deflate
$LN18@deflate:

; 899  :         block_state bstate;
; 900  : 
; 901  :         bstate = s->strategy == Z_HUFFMAN_ONLY ? deflate_huff(s, flush) :
; 902  :                     (s->strategy == Z_RLE ? deflate_rle(s, flush) :
; 903  :                         (*(configuration_table[s->level].func))(s, flush));

	mov	eax, DWORD PTR _s$[ebp]
	cmp	DWORD PTR [eax+136], 2
	jne	SHORT $LN96@deflate
	mov	ecx, DWORD PTR _flush$[ebp]
	push	ecx
	mov	edx, DWORD PTR _s$[ebp]
	push	edx
	call	_deflate_huff
	add	esp, 8
	mov	DWORD PTR tv660[ebp], eax
	jmp	SHORT $LN97@deflate
$LN96@deflate:
	mov	eax, DWORD PTR _s$[ebp]
	cmp	DWORD PTR [eax+136], 3
	jne	SHORT $LN94@deflate
	mov	ecx, DWORD PTR _flush$[ebp]
	push	ecx
	mov	edx, DWORD PTR _s$[ebp]
	push	edx
	call	_deflate_rle
	add	esp, 8
	mov	DWORD PTR tv659[ebp], eax
	jmp	SHORT $LN95@deflate
$LN94@deflate:
	mov	eax, DWORD PTR _flush$[ebp]
	push	eax
	mov	ecx, DWORD PTR _s$[ebp]
	push	ecx
	mov	edx, DWORD PTR _s$[ebp]
	mov	eax, DWORD PTR [edx+132]
	imul	eax, 12					; 0000000cH
	mov	ecx, DWORD PTR _configuration_table[eax+8]
	call	ecx
	add	esp, 8
	mov	DWORD PTR tv659[ebp], eax
$LN95@deflate:
	mov	edx, DWORD PTR tv659[ebp]
	mov	DWORD PTR tv660[ebp], edx
$LN97@deflate:
	mov	eax, DWORD PTR tv660[ebp]
	mov	DWORD PTR _bstate$80730[ebp], eax

; 904  : 
; 905  :         if (bstate == finish_started || bstate == finish_done) {

	cmp	DWORD PTR _bstate$80730[ebp], 2
	je	SHORT $LN16@deflate
	cmp	DWORD PTR _bstate$80730[ebp], 3
	jne	SHORT $LN17@deflate
$LN16@deflate:

; 906  :             s->status = FINISH_STATE;

	mov	eax, DWORD PTR _s$[ebp]
	mov	DWORD PTR [eax+4], 666			; 0000029aH
$LN17@deflate:

; 907  :         }
; 908  :         if (bstate == need_more || bstate == finish_started) {

	cmp	DWORD PTR _bstate$80730[ebp], 0
	je	SHORT $LN14@deflate
	cmp	DWORD PTR _bstate$80730[ebp], 2
	jne	SHORT $LN15@deflate
$LN14@deflate:

; 909  :             if (strm->avail_out == 0) {

	mov	eax, DWORD PTR _strm$[ebp]
	cmp	DWORD PTR [eax+16], 0
	jne	SHORT $LN13@deflate

; 910  :                 s->last_flush = -1; /* avoid BUF_ERROR next call, see above */

	mov	eax, DWORD PTR _s$[ebp]
	mov	DWORD PTR [eax+40], -1
$LN13@deflate:

; 911  :             }
; 912  :             return Z_OK;

	xor	eax, eax
	jmp	$LN84@deflate
$LN15@deflate:

; 913  :             /* If flush != Z_NO_FLUSH && avail_out == 0, the next call
; 914  :              * of deflate should use the same flush parameter to make sure
; 915  :              * that the flush is complete. So we don't have to output an
; 916  :              * empty block here, this will be done at next call. This also
; 917  :              * ensures that for a very small output buffer, we emit at most
; 918  :              * one empty block.
; 919  :              */
; 920  :         }
; 921  :         if (bstate == block_done) {

	cmp	DWORD PTR _bstate$80730[ebp], 1
	jne	$LN19@deflate

; 922  :             if (flush == Z_PARTIAL_FLUSH) {

	cmp	DWORD PTR _flush$[ebp], 1
	jne	SHORT $LN11@deflate

; 923  :                 _tr_align(s);

	mov	eax, DWORD PTR _s$[ebp]
	push	eax
	call	__tr_align
	add	esp, 4
	jmp	SHORT $LN10@deflate
$LN11@deflate:

; 924  :             } else if (flush != Z_BLOCK) { /* FULL_FLUSH or SYNC_FLUSH */

	cmp	DWORD PTR _flush$[ebp], 5
	je	SHORT $LN10@deflate

; 925  :                 _tr_stored_block(s, (char*)0, 0L, 0);

	push	0
	push	0
	push	0
	mov	eax, DWORD PTR _s$[ebp]
	push	eax
	call	__tr_stored_block
	add	esp, 16					; 00000010H

; 926  :                 /* For a full flush, this empty block will be recognized
; 927  :                  * as a special marker by inflate_sync().
; 928  :                  */
; 929  :                 if (flush == Z_FULL_FLUSH) {

	cmp	DWORD PTR _flush$[ebp], 3
	jne	SHORT $LN10@deflate

; 930  :                     CLEAR_HASH(s);             /* forget history */

	mov	eax, DWORD PTR _s$[ebp]
	mov	ecx, DWORD PTR [eax+76]
	mov	edx, DWORD PTR _s$[ebp]
	mov	eax, DWORD PTR [edx+68]
	xor	edx, edx
	mov	WORD PTR [eax+ecx*2-2], dx
	mov	eax, DWORD PTR _s$[ebp]
	mov	ecx, DWORD PTR [eax+76]
	lea	edx, DWORD PTR [ecx+ecx-2]
	push	edx
	push	0
	mov	eax, DWORD PTR _s$[ebp]
	mov	ecx, DWORD PTR [eax+68]
	push	ecx
	call	_memset
	add	esp, 12					; 0000000cH

; 931  :                     if (s->lookahead == 0) {

	mov	eax, DWORD PTR _s$[ebp]
	cmp	DWORD PTR [eax+116], 0
	jne	SHORT $LN10@deflate

; 932  :                         s->strstart = 0;

	mov	eax, DWORD PTR _s$[ebp]
	mov	DWORD PTR [eax+108], 0

; 933  :                         s->block_start = 0L;

	mov	eax, DWORD PTR _s$[ebp]
	mov	DWORD PTR [eax+92], 0

; 934  :                         s->insert = 0;

	mov	eax, DWORD PTR _s$[ebp]
	mov	DWORD PTR [eax+5812], 0
$LN10@deflate:

; 935  :                     }
; 936  :                 }
; 937  :             }
; 938  :             flush_pending(strm);

	mov	eax, DWORD PTR _strm$[ebp]
	push	eax
	call	_flush_pending
	add	esp, 4

; 939  :             if (strm->avail_out == 0) {

	mov	eax, DWORD PTR _strm$[ebp]
	cmp	DWORD PTR [eax+16], 0
	jne	SHORT $LN19@deflate

; 940  :               s->last_flush = -1; /* avoid BUF_ERROR at next call, see above */

	mov	eax, DWORD PTR _s$[ebp]
	mov	DWORD PTR [eax+40], -1

; 941  :               return Z_OK;

	xor	eax, eax
	jmp	$LN84@deflate
$LN19@deflate:

; 942  :             }
; 943  :         }
; 944  :     }
; 945  :     Assert(strm->avail_out > 0, "bug2");
; 946  : 
; 947  :     if (flush != Z_FINISH) return Z_OK;

	cmp	DWORD PTR _flush$[ebp], 4
	je	SHORT $LN5@deflate
	xor	eax, eax
	jmp	$LN84@deflate
$LN5@deflate:

; 948  :     if (s->wrap <= 0) return Z_STREAM_END;

	mov	eax, DWORD PTR _s$[ebp]
	cmp	DWORD PTR [eax+24], 0
	jg	SHORT $LN4@deflate
	mov	eax, 1
	jmp	$LN84@deflate
$LN4@deflate:

; 949  : 
; 950  :     /* Write the trailer */
; 951  : #ifdef GZIP
; 952  :     if (s->wrap == 2) {

	mov	eax, DWORD PTR _s$[ebp]
	cmp	DWORD PTR [eax+24], 2
	jne	$LN3@deflate

; 953  :         put_byte(s, (Byte)(strm->adler & 0xff));

	mov	eax, DWORD PTR _strm$[ebp]
	mov	ecx, DWORD PTR [eax+48]
	and	ecx, 255				; 000000ffH
	mov	edx, DWORD PTR _s$[ebp]
	mov	eax, DWORD PTR [edx+8]
	mov	edx, DWORD PTR _s$[ebp]
	mov	edx, DWORD PTR [edx+20]
	mov	BYTE PTR [eax+edx], cl
	mov	eax, DWORD PTR _s$[ebp]
	mov	ecx, DWORD PTR [eax+20]
	add	ecx, 1
	mov	edx, DWORD PTR _s$[ebp]
	mov	DWORD PTR [edx+20], ecx

; 954  :         put_byte(s, (Byte)((strm->adler >> 8) & 0xff));

	mov	eax, DWORD PTR _strm$[ebp]
	mov	ecx, DWORD PTR [eax+48]
	shr	ecx, 8
	and	ecx, 255				; 000000ffH
	mov	edx, DWORD PTR _s$[ebp]
	mov	eax, DWORD PTR [edx+8]
	mov	edx, DWORD PTR _s$[ebp]
	mov	edx, DWORD PTR [edx+20]
	mov	BYTE PTR [eax+edx], cl
	mov	eax, DWORD PTR _s$[ebp]
	mov	ecx, DWORD PTR [eax+20]
	add	ecx, 1
	mov	edx, DWORD PTR _s$[ebp]
	mov	DWORD PTR [edx+20], ecx

; 955  :         put_byte(s, (Byte)((strm->adler >> 16) & 0xff));

	mov	eax, DWORD PTR _strm$[ebp]
	mov	ecx, DWORD PTR [eax+48]
	shr	ecx, 16					; 00000010H
	and	ecx, 255				; 000000ffH
	mov	edx, DWORD PTR _s$[ebp]
	mov	eax, DWORD PTR [edx+8]
	mov	edx, DWORD PTR _s$[ebp]
	mov	edx, DWORD PTR [edx+20]
	mov	BYTE PTR [eax+edx], cl
	mov	eax, DWORD PTR _s$[ebp]
	mov	ecx, DWORD PTR [eax+20]
	add	ecx, 1
	mov	edx, DWORD PTR _s$[ebp]
	mov	DWORD PTR [edx+20], ecx

; 956  :         put_byte(s, (Byte)((strm->adler >> 24) & 0xff));

	mov	eax, DWORD PTR _strm$[ebp]
	mov	ecx, DWORD PTR [eax+48]
	shr	ecx, 24					; 00000018H
	and	ecx, 255				; 000000ffH
	mov	edx, DWORD PTR _s$[ebp]
	mov	eax, DWORD PTR [edx+8]
	mov	edx, DWORD PTR _s$[ebp]
	mov	edx, DWORD PTR [edx+20]
	mov	BYTE PTR [eax+edx], cl
	mov	eax, DWORD PTR _s$[ebp]
	mov	ecx, DWORD PTR [eax+20]
	add	ecx, 1
	mov	edx, DWORD PTR _s$[ebp]
	mov	DWORD PTR [edx+20], ecx

; 957  :         put_byte(s, (Byte)(strm->total_in & 0xff));

	mov	eax, DWORD PTR _strm$[ebp]
	mov	ecx, DWORD PTR [eax+8]
	and	ecx, 255				; 000000ffH
	mov	edx, DWORD PTR _s$[ebp]
	mov	eax, DWORD PTR [edx+8]
	mov	edx, DWORD PTR _s$[ebp]
	mov	edx, DWORD PTR [edx+20]
	mov	BYTE PTR [eax+edx], cl
	mov	eax, DWORD PTR _s$[ebp]
	mov	ecx, DWORD PTR [eax+20]
	add	ecx, 1
	mov	edx, DWORD PTR _s$[ebp]
	mov	DWORD PTR [edx+20], ecx

; 958  :         put_byte(s, (Byte)((strm->total_in >> 8) & 0xff));

	mov	eax, DWORD PTR _strm$[ebp]
	mov	ecx, DWORD PTR [eax+8]
	shr	ecx, 8
	and	ecx, 255				; 000000ffH
	mov	edx, DWORD PTR _s$[ebp]
	mov	eax, DWORD PTR [edx+8]
	mov	edx, DWORD PTR _s$[ebp]
	mov	edx, DWORD PTR [edx+20]
	mov	BYTE PTR [eax+edx], cl
	mov	eax, DWORD PTR _s$[ebp]
	mov	ecx, DWORD PTR [eax+20]
	add	ecx, 1
	mov	edx, DWORD PTR _s$[ebp]
	mov	DWORD PTR [edx+20], ecx

; 959  :         put_byte(s, (Byte)((strm->total_in >> 16) & 0xff));

	mov	eax, DWORD PTR _strm$[ebp]
	mov	ecx, DWORD PTR [eax+8]
	shr	ecx, 16					; 00000010H
	and	ecx, 255				; 000000ffH
	mov	edx, DWORD PTR _s$[ebp]
	mov	eax, DWORD PTR [edx+8]
	mov	edx, DWORD PTR _s$[ebp]
	mov	edx, DWORD PTR [edx+20]
	mov	BYTE PTR [eax+edx], cl
	mov	eax, DWORD PTR _s$[ebp]
	mov	ecx, DWORD PTR [eax+20]
	add	ecx, 1
	mov	edx, DWORD PTR _s$[ebp]
	mov	DWORD PTR [edx+20], ecx

; 960  :         put_byte(s, (Byte)((strm->total_in >> 24) & 0xff));

	mov	eax, DWORD PTR _strm$[ebp]
	mov	ecx, DWORD PTR [eax+8]
	shr	ecx, 24					; 00000018H
	and	ecx, 255				; 000000ffH
	mov	edx, DWORD PTR _s$[ebp]
	mov	eax, DWORD PTR [edx+8]
	mov	edx, DWORD PTR _s$[ebp]
	mov	edx, DWORD PTR [edx+20]
	mov	BYTE PTR [eax+edx], cl
	mov	eax, DWORD PTR _s$[ebp]
	mov	ecx, DWORD PTR [eax+20]
	add	ecx, 1
	mov	edx, DWORD PTR _s$[ebp]
	mov	DWORD PTR [edx+20], ecx

; 961  :     }
; 962  :     else

	jmp	SHORT $LN2@deflate
$LN3@deflate:

; 963  : #endif
; 964  :     {
; 965  :         putShortMSB(s, (uInt)(strm->adler >> 16));

	mov	eax, DWORD PTR _strm$[ebp]
	mov	ecx, DWORD PTR [eax+48]
	shr	ecx, 16					; 00000010H
	push	ecx
	mov	edx, DWORD PTR _s$[ebp]
	push	edx
	call	_putShortMSB
	add	esp, 8

; 966  :         putShortMSB(s, (uInt)(strm->adler & 0xffff));

	mov	eax, DWORD PTR _strm$[ebp]
	mov	ecx, DWORD PTR [eax+48]
	and	ecx, 65535				; 0000ffffH
	push	ecx
	mov	edx, DWORD PTR _s$[ebp]
	push	edx
	call	_putShortMSB
	add	esp, 8
$LN2@deflate:

; 967  :     }
; 968  :     flush_pending(strm);

	mov	eax, DWORD PTR _strm$[ebp]
	push	eax
	call	_flush_pending
	add	esp, 4

; 969  :     /* If avail_out is zero, the application will call deflate again
; 970  :      * to flush the rest.
; 971  :      */
; 972  :     if (s->wrap > 0) s->wrap = -s->wrap; /* write the trailer only once! */

	mov	eax, DWORD PTR _s$[ebp]
	cmp	DWORD PTR [eax+24], 0
	jle	SHORT $LN1@deflate
	mov	eax, DWORD PTR _s$[ebp]
	mov	ecx, DWORD PTR [eax+24]
	neg	ecx
	mov	edx, DWORD PTR _s$[ebp]
	mov	DWORD PTR [edx+24], ecx
$LN1@deflate:

; 973  :     return s->pending != 0 ? Z_OK : Z_STREAM_END;

	mov	eax, DWORD PTR _s$[ebp]
	xor	ecx, ecx
	cmp	DWORD PTR [eax+20], 0
	sete	cl
	mov	eax, ecx
$LN84@deflate:

; 974  : }

	pop	edi
	pop	esi
	pop	ebx
	mov	esp, ebp
	pop	ebp
	ret	8
_deflate@8 ENDP
; Function compile flags: /Odtp /ZI
_TEXT	ENDS
;	COMDAT _putShortMSB
_TEXT	SEGMENT
_s$ = 8							; size = 4
_b$ = 12						; size = 4
_putShortMSB PROC					; COMDAT

; 629  : {

	push	ebp
	mov	ebp, esp
	sub	esp, 64					; 00000040H
	push	ebx
	push	esi
	push	edi

; 630  :     put_byte(s, (Byte)(b >> 8));

	mov	eax, DWORD PTR _b$[ebp]
	shr	eax, 8
	mov	ecx, DWORD PTR _s$[ebp]
	mov	edx, DWORD PTR [ecx+8]
	mov	ecx, DWORD PTR _s$[ebp]
	mov	ecx, DWORD PTR [ecx+20]
	mov	BYTE PTR [edx+ecx], al
	mov	edx, DWORD PTR _s$[ebp]
	mov	eax, DWORD PTR [edx+20]
	add	eax, 1
	mov	ecx, DWORD PTR _s$[ebp]
	mov	DWORD PTR [ecx+20], eax

; 631  :     put_byte(s, (Byte)(b & 0xff));

	mov	eax, DWORD PTR _b$[ebp]
	and	eax, 255				; 000000ffH
	mov	ecx, DWORD PTR _s$[ebp]
	mov	edx, DWORD PTR [ecx+8]
	mov	ecx, DWORD PTR _s$[ebp]
	mov	ecx, DWORD PTR [ecx+20]
	mov	BYTE PTR [edx+ecx], al
	mov	edx, DWORD PTR _s$[ebp]
	mov	eax, DWORD PTR [edx+20]
	add	eax, 1
	mov	ecx, DWORD PTR _s$[ebp]
	mov	DWORD PTR [ecx+20], eax

; 632  : }

	pop	edi
	pop	esi
	pop	ebx
	mov	esp, ebp
	pop	ebp
	ret	0
_putShortMSB ENDP
_TEXT	ENDS
EXTRN	_memcpy:PROC
; Function compile flags: /Odtp /ZI
;	COMDAT _flush_pending
_TEXT	SEGMENT
_s$ = -8						; size = 4
_len$ = -4						; size = 4
_strm$ = 8						; size = 4
_flush_pending PROC					; COMDAT

; 642  : {

	push	ebp
	mov	ebp, esp
	sub	esp, 72					; 00000048H
	push	ebx
	push	esi
	push	edi

; 643  :     unsigned len;
; 644  :     deflate_state *s = strm->state;

	mov	eax, DWORD PTR _strm$[ebp]
	mov	ecx, DWORD PTR [eax+28]
	mov	DWORD PTR _s$[ebp], ecx

; 645  : 
; 646  :     _tr_flush_bits(s);

	mov	eax, DWORD PTR _s$[ebp]
	push	eax
	call	__tr_flush_bits
	add	esp, 4

; 647  :     len = s->pending;

	mov	eax, DWORD PTR _s$[ebp]
	mov	ecx, DWORD PTR [eax+20]
	mov	DWORD PTR _len$[ebp], ecx

; 648  :     if (len > strm->avail_out) len = strm->avail_out;

	mov	eax, DWORD PTR _strm$[ebp]
	mov	ecx, DWORD PTR _len$[ebp]
	cmp	ecx, DWORD PTR [eax+16]
	jbe	SHORT $LN3@flush_pend
	mov	eax, DWORD PTR _strm$[ebp]
	mov	ecx, DWORD PTR [eax+16]
	mov	DWORD PTR _len$[ebp], ecx
$LN3@flush_pend:

; 649  :     if (len == 0) return;

	cmp	DWORD PTR _len$[ebp], 0
	jne	SHORT $LN2@flush_pend
	jmp	SHORT $LN4@flush_pend
$LN2@flush_pend:

; 650  : 
; 651  :     zmemcpy(strm->next_out, s->pending_out, len);

	mov	eax, DWORD PTR _len$[ebp]
	push	eax
	mov	ecx, DWORD PTR _s$[ebp]
	mov	edx, DWORD PTR [ecx+16]
	push	edx
	mov	eax, DWORD PTR _strm$[ebp]
	mov	ecx, DWORD PTR [eax+12]
	push	ecx
	call	_memcpy
	add	esp, 12					; 0000000cH

; 652  :     strm->next_out  += len;

	mov	eax, DWORD PTR _strm$[ebp]
	mov	ecx, DWORD PTR [eax+12]
	add	ecx, DWORD PTR _len$[ebp]
	mov	edx, DWORD PTR _strm$[ebp]
	mov	DWORD PTR [edx+12], ecx

; 653  :     s->pending_out  += len;

	mov	eax, DWORD PTR _s$[ebp]
	mov	ecx, DWORD PTR [eax+16]
	add	ecx, DWORD PTR _len$[ebp]
	mov	edx, DWORD PTR _s$[ebp]
	mov	DWORD PTR [edx+16], ecx

; 654  :     strm->total_out += len;

	mov	eax, DWORD PTR _strm$[ebp]
	mov	ecx, DWORD PTR [eax+20]
	add	ecx, DWORD PTR _len$[ebp]
	mov	edx, DWORD PTR _strm$[ebp]
	mov	DWORD PTR [edx+20], ecx

; 655  :     strm->avail_out  -= len;

	mov	eax, DWORD PTR _strm$[ebp]
	mov	ecx, DWORD PTR [eax+16]
	sub	ecx, DWORD PTR _len$[ebp]
	mov	edx, DWORD PTR _strm$[ebp]
	mov	DWORD PTR [edx+16], ecx

; 656  :     s->pending -= len;

	mov	eax, DWORD PTR _s$[ebp]
	mov	ecx, DWORD PTR [eax+20]
	sub	ecx, DWORD PTR _len$[ebp]
	mov	edx, DWORD PTR _s$[ebp]
	mov	DWORD PTR [edx+20], ecx

; 657  :     if (s->pending == 0) {

	mov	eax, DWORD PTR _s$[ebp]
	cmp	DWORD PTR [eax+20], 0
	jne	SHORT $LN4@flush_pend

; 658  :         s->pending_out = s->pending_buf;

	mov	eax, DWORD PTR _s$[ebp]
	mov	ecx, DWORD PTR _s$[ebp]
	mov	edx, DWORD PTR [ecx+8]
	mov	DWORD PTR [eax+16], edx
$LN4@flush_pend:

; 659  :     }
; 660  : }

	pop	edi
	pop	esi
	pop	ebx
	mov	esp, ebp
	pop	ebp
	ret	0
_flush_pending ENDP
; Function compile flags: /Odtp /ZI
_TEXT	ENDS
;	COMDAT _deflateEnd@4
_TEXT	SEGMENT
_status$ = -4						; size = 4
_strm$ = 8						; size = 4
_deflateEnd@4 PROC					; COMDAT

; 979  : {

	push	ebp
	mov	ebp, esp
	sub	esp, 68					; 00000044H
	push	ebx
	push	esi
	push	edi

; 980  :     int status;
; 981  : 
; 982  :     if (strm == Z_NULL || strm->state == Z_NULL) return Z_STREAM_ERROR;

	cmp	DWORD PTR _strm$[ebp], 0
	je	SHORT $LN6@deflateEnd
	mov	eax, DWORD PTR _strm$[ebp]
	cmp	DWORD PTR [eax+28], 0
	jne	SHORT $LN7@deflateEnd
$LN6@deflateEnd:
	mov	eax, -2					; fffffffeH
	jmp	$LN8@deflateEnd
$LN7@deflateEnd:

; 983  : 
; 984  :     status = strm->state->status;

	mov	eax, DWORD PTR _strm$[ebp]
	mov	ecx, DWORD PTR [eax+28]
	mov	edx, DWORD PTR [ecx+4]
	mov	DWORD PTR _status$[ebp], edx

; 985  :     if (status != INIT_STATE &&
; 986  :         status != EXTRA_STATE &&
; 987  :         status != NAME_STATE &&
; 988  :         status != COMMENT_STATE &&
; 989  :         status != HCRC_STATE &&
; 990  :         status != BUSY_STATE &&
; 991  :         status != FINISH_STATE) {

	cmp	DWORD PTR _status$[ebp], 42		; 0000002aH
	je	SHORT $LN5@deflateEnd
	cmp	DWORD PTR _status$[ebp], 69		; 00000045H
	je	SHORT $LN5@deflateEnd
	cmp	DWORD PTR _status$[ebp], 73		; 00000049H
	je	SHORT $LN5@deflateEnd
	cmp	DWORD PTR _status$[ebp], 91		; 0000005bH
	je	SHORT $LN5@deflateEnd
	cmp	DWORD PTR _status$[ebp], 103		; 00000067H
	je	SHORT $LN5@deflateEnd
	cmp	DWORD PTR _status$[ebp], 113		; 00000071H
	je	SHORT $LN5@deflateEnd
	cmp	DWORD PTR _status$[ebp], 666		; 0000029aH
	je	SHORT $LN5@deflateEnd

; 992  :       return Z_STREAM_ERROR;

	mov	eax, -2					; fffffffeH
	jmp	$LN8@deflateEnd
$LN5@deflateEnd:

; 993  :     }
; 994  : 
; 995  :     /* Deallocate in reverse order of allocations: */
; 996  :     TRY_FREE(strm, strm->state->pending_buf);

	mov	eax, DWORD PTR _strm$[ebp]
	mov	ecx, DWORD PTR [eax+28]
	cmp	DWORD PTR [ecx+8], 0
	je	SHORT $LN4@deflateEnd
	mov	eax, DWORD PTR _strm$[ebp]
	mov	ecx, DWORD PTR [eax+28]
	mov	edx, DWORD PTR [ecx+8]
	push	edx
	mov	eax, DWORD PTR _strm$[ebp]
	mov	ecx, DWORD PTR [eax+40]
	push	ecx
	mov	edx, DWORD PTR _strm$[ebp]
	mov	eax, DWORD PTR [edx+36]
	call	eax
	add	esp, 8
$LN4@deflateEnd:

; 997  :     TRY_FREE(strm, strm->state->head);

	mov	eax, DWORD PTR _strm$[ebp]
	mov	ecx, DWORD PTR [eax+28]
	cmp	DWORD PTR [ecx+68], 0
	je	SHORT $LN3@deflateEnd
	mov	eax, DWORD PTR _strm$[ebp]
	mov	ecx, DWORD PTR [eax+28]
	mov	edx, DWORD PTR [ecx+68]
	push	edx
	mov	eax, DWORD PTR _strm$[ebp]
	mov	ecx, DWORD PTR [eax+40]
	push	ecx
	mov	edx, DWORD PTR _strm$[ebp]
	mov	eax, DWORD PTR [edx+36]
	call	eax
	add	esp, 8
$LN3@deflateEnd:

; 998  :     TRY_FREE(strm, strm->state->prev);

	mov	eax, DWORD PTR _strm$[ebp]
	mov	ecx, DWORD PTR [eax+28]
	cmp	DWORD PTR [ecx+64], 0
	je	SHORT $LN2@deflateEnd
	mov	eax, DWORD PTR _strm$[ebp]
	mov	ecx, DWORD PTR [eax+28]
	mov	edx, DWORD PTR [ecx+64]
	push	edx
	mov	eax, DWORD PTR _strm$[ebp]
	mov	ecx, DWORD PTR [eax+40]
	push	ecx
	mov	edx, DWORD PTR _strm$[ebp]
	mov	eax, DWORD PTR [edx+36]
	call	eax
	add	esp, 8
$LN2@deflateEnd:

; 999  :     TRY_FREE(strm, strm->state->window);

	mov	eax, DWORD PTR _strm$[ebp]
	mov	ecx, DWORD PTR [eax+28]
	cmp	DWORD PTR [ecx+56], 0
	je	SHORT $LN1@deflateEnd
	mov	eax, DWORD PTR _strm$[ebp]
	mov	ecx, DWORD PTR [eax+28]
	mov	edx, DWORD PTR [ecx+56]
	push	edx
	mov	eax, DWORD PTR _strm$[ebp]
	mov	ecx, DWORD PTR [eax+40]
	push	ecx
	mov	edx, DWORD PTR _strm$[ebp]
	mov	eax, DWORD PTR [edx+36]
	call	eax
	add	esp, 8
$LN1@deflateEnd:

; 1000 : 
; 1001 :     ZFREE(strm, strm->state);

	mov	eax, DWORD PTR _strm$[ebp]
	mov	ecx, DWORD PTR [eax+28]
	push	ecx
	mov	edx, DWORD PTR _strm$[ebp]
	mov	eax, DWORD PTR [edx+40]
	push	eax
	mov	ecx, DWORD PTR _strm$[ebp]
	mov	edx, DWORD PTR [ecx+36]
	call	edx
	add	esp, 8

; 1002 :     strm->state = Z_NULL;

	mov	eax, DWORD PTR _strm$[ebp]
	mov	DWORD PTR [eax+28], 0

; 1003 : 
; 1004 :     return status == BUSY_STATE ? Z_DATA_ERROR : Z_OK;

	xor	eax, eax
	cmp	DWORD PTR _status$[ebp], 113		; 00000071H
	setne	al
	sub	eax, 1
	and	eax, -3					; fffffffdH
$LN8@deflateEnd:

; 1005 : }

	pop	edi
	pop	esi
	pop	ebx
	mov	esp, ebp
	pop	ebp
	ret	4
_deflateEnd@4 ENDP
_TEXT	ENDS
PUBLIC	_deflateCopy@8
; Function compile flags: /Odtp /ZI
;	COMDAT _deflateCopy@8
_TEXT	SEGMENT
_overlay$ = -12						; size = 4
_ss$ = -8						; size = 4
_ds$ = -4						; size = 4
_dest$ = 8						; size = 4
_source$ = 12						; size = 4
_deflateCopy@8 PROC					; COMDAT

; 1015 : {

	push	ebp
	mov	ebp, esp
	sub	esp, 76					; 0000004cH
	push	ebx
	push	esi
	push	edi

; 1016 : #ifdef MAXSEG_64K
; 1017 :     return Z_STREAM_ERROR;
; 1018 : #else
; 1019 :     deflate_state *ds;
; 1020 :     deflate_state *ss;
; 1021 :     ushf *overlay;
; 1022 : 
; 1023 : 
; 1024 :     if (source == Z_NULL || dest == Z_NULL || source->state == Z_NULL) {

	cmp	DWORD PTR _source$[ebp], 0
	je	SHORT $LN4@deflateCop
	cmp	DWORD PTR _dest$[ebp], 0
	je	SHORT $LN4@deflateCop
	mov	eax, DWORD PTR _source$[ebp]
	cmp	DWORD PTR [eax+28], 0
	jne	SHORT $LN5@deflateCop
$LN4@deflateCop:

; 1025 :         return Z_STREAM_ERROR;

	mov	eax, -2					; fffffffeH
	jmp	$LN6@deflateCop
$LN5@deflateCop:

; 1026 :     }
; 1027 : 
; 1028 :     ss = source->state;

	mov	eax, DWORD PTR _source$[ebp]
	mov	ecx, DWORD PTR [eax+28]
	mov	DWORD PTR _ss$[ebp], ecx

; 1029 : 
; 1030 :     zmemcpy((voidpf)dest, (voidpf)source, sizeof(z_stream));

	push	56					; 00000038H
	mov	eax, DWORD PTR _source$[ebp]
	push	eax
	mov	ecx, DWORD PTR _dest$[ebp]
	push	ecx
	call	_memcpy
	add	esp, 12					; 0000000cH

; 1031 : 
; 1032 :     ds = (deflate_state *) ZALLOC(dest, 1, sizeof(deflate_state));

	push	5828					; 000016c4H
	push	1
	mov	eax, DWORD PTR _dest$[ebp]
	mov	ecx, DWORD PTR [eax+40]
	push	ecx
	mov	edx, DWORD PTR _dest$[ebp]
	mov	eax, DWORD PTR [edx+32]
	call	eax
	add	esp, 12					; 0000000cH
	mov	DWORD PTR _ds$[ebp], eax

; 1033 :     if (ds == Z_NULL) return Z_MEM_ERROR;

	cmp	DWORD PTR _ds$[ebp], 0
	jne	SHORT $LN3@deflateCop
	mov	eax, -4					; fffffffcH
	jmp	$LN6@deflateCop
$LN3@deflateCop:

; 1034 :     dest->state = (struct internal_state FAR *) ds;

	mov	eax, DWORD PTR _dest$[ebp]
	mov	ecx, DWORD PTR _ds$[ebp]
	mov	DWORD PTR [eax+28], ecx

; 1035 :     zmemcpy((voidpf)ds, (voidpf)ss, sizeof(deflate_state));

	push	5828					; 000016c4H
	mov	eax, DWORD PTR _ss$[ebp]
	push	eax
	mov	ecx, DWORD PTR _ds$[ebp]
	push	ecx
	call	_memcpy
	add	esp, 12					; 0000000cH

; 1036 :     ds->strm = dest;

	mov	eax, DWORD PTR _ds$[ebp]
	mov	ecx, DWORD PTR _dest$[ebp]
	mov	DWORD PTR [eax], ecx

; 1037 : 
; 1038 :     ds->window = (Bytef *) ZALLOC(dest, ds->w_size, 2*sizeof(Byte));

	push	2
	mov	eax, DWORD PTR _ds$[ebp]
	mov	ecx, DWORD PTR [eax+44]
	push	ecx
	mov	edx, DWORD PTR _dest$[ebp]
	mov	eax, DWORD PTR [edx+40]
	push	eax
	mov	ecx, DWORD PTR _dest$[ebp]
	mov	edx, DWORD PTR [ecx+32]
	call	edx
	add	esp, 12					; 0000000cH
	mov	ecx, DWORD PTR _ds$[ebp]
	mov	DWORD PTR [ecx+56], eax

; 1039 :     ds->prev   = (Posf *)  ZALLOC(dest, ds->w_size, sizeof(Pos));

	push	2
	mov	eax, DWORD PTR _ds$[ebp]
	mov	ecx, DWORD PTR [eax+44]
	push	ecx
	mov	edx, DWORD PTR _dest$[ebp]
	mov	eax, DWORD PTR [edx+40]
	push	eax
	mov	ecx, DWORD PTR _dest$[ebp]
	mov	edx, DWORD PTR [ecx+32]
	call	edx
	add	esp, 12					; 0000000cH
	mov	ecx, DWORD PTR _ds$[ebp]
	mov	DWORD PTR [ecx+64], eax

; 1040 :     ds->head   = (Posf *)  ZALLOC(dest, ds->hash_size, sizeof(Pos));

	push	2
	mov	eax, DWORD PTR _ds$[ebp]
	mov	ecx, DWORD PTR [eax+76]
	push	ecx
	mov	edx, DWORD PTR _dest$[ebp]
	mov	eax, DWORD PTR [edx+40]
	push	eax
	mov	ecx, DWORD PTR _dest$[ebp]
	mov	edx, DWORD PTR [ecx+32]
	call	edx
	add	esp, 12					; 0000000cH
	mov	ecx, DWORD PTR _ds$[ebp]
	mov	DWORD PTR [ecx+68], eax

; 1041 :     overlay = (ushf *) ZALLOC(dest, ds->lit_bufsize, sizeof(ush)+2);

	push	4
	mov	eax, DWORD PTR _ds$[ebp]
	mov	ecx, DWORD PTR [eax+5788]
	push	ecx
	mov	edx, DWORD PTR _dest$[ebp]
	mov	eax, DWORD PTR [edx+40]
	push	eax
	mov	ecx, DWORD PTR _dest$[ebp]
	mov	edx, DWORD PTR [ecx+32]
	call	edx
	add	esp, 12					; 0000000cH
	mov	DWORD PTR _overlay$[ebp], eax

; 1042 :     ds->pending_buf = (uchf *) overlay;

	mov	eax, DWORD PTR _ds$[ebp]
	mov	ecx, DWORD PTR _overlay$[ebp]
	mov	DWORD PTR [eax+8], ecx

; 1043 : 
; 1044 :     if (ds->window == Z_NULL || ds->prev == Z_NULL || ds->head == Z_NULL ||
; 1045 :         ds->pending_buf == Z_NULL) {

	mov	eax, DWORD PTR _ds$[ebp]
	cmp	DWORD PTR [eax+56], 0
	je	SHORT $LN1@deflateCop
	mov	eax, DWORD PTR _ds$[ebp]
	cmp	DWORD PTR [eax+64], 0
	je	SHORT $LN1@deflateCop
	mov	eax, DWORD PTR _ds$[ebp]
	cmp	DWORD PTR [eax+68], 0
	je	SHORT $LN1@deflateCop
	mov	eax, DWORD PTR _ds$[ebp]
	cmp	DWORD PTR [eax+8], 0
	jne	SHORT $LN2@deflateCop
$LN1@deflateCop:

; 1046 :         deflateEnd (dest);

	mov	eax, DWORD PTR _dest$[ebp]
	push	eax
	call	_deflateEnd@4

; 1047 :         return Z_MEM_ERROR;

	mov	eax, -4					; fffffffcH
	jmp	$LN6@deflateCop
$LN2@deflateCop:

; 1048 :     }
; 1049 :     /* following zmemcpy do not work for 16-bit MSDOS */
; 1050 :     zmemcpy(ds->window, ss->window, ds->w_size * 2 * sizeof(Byte));

	mov	eax, DWORD PTR _ds$[ebp]
	mov	ecx, DWORD PTR [eax+44]
	shl	ecx, 1
	push	ecx
	mov	edx, DWORD PTR _ss$[ebp]
	mov	eax, DWORD PTR [edx+56]
	push	eax
	mov	ecx, DWORD PTR _ds$[ebp]
	mov	edx, DWORD PTR [ecx+56]
	push	edx
	call	_memcpy
	add	esp, 12					; 0000000cH

; 1051 :     zmemcpy((voidpf)ds->prev, (voidpf)ss->prev, ds->w_size * sizeof(Pos));

	mov	eax, DWORD PTR _ds$[ebp]
	mov	ecx, DWORD PTR [eax+44]
	shl	ecx, 1
	push	ecx
	mov	edx, DWORD PTR _ss$[ebp]
	mov	eax, DWORD PTR [edx+64]
	push	eax
	mov	ecx, DWORD PTR _ds$[ebp]
	mov	edx, DWORD PTR [ecx+64]
	push	edx
	call	_memcpy
	add	esp, 12					; 0000000cH

; 1052 :     zmemcpy((voidpf)ds->head, (voidpf)ss->head, ds->hash_size * sizeof(Pos));

	mov	eax, DWORD PTR _ds$[ebp]
	mov	ecx, DWORD PTR [eax+76]
	shl	ecx, 1
	push	ecx
	mov	edx, DWORD PTR _ss$[ebp]
	mov	eax, DWORD PTR [edx+68]
	push	eax
	mov	ecx, DWORD PTR _ds$[ebp]
	mov	edx, DWORD PTR [ecx+68]
	push	edx
	call	_memcpy
	add	esp, 12					; 0000000cH

; 1053 :     zmemcpy(ds->pending_buf, ss->pending_buf, (uInt)ds->pending_buf_size);

	mov	eax, DWORD PTR _ds$[ebp]
	mov	ecx, DWORD PTR [eax+12]
	push	ecx
	mov	edx, DWORD PTR _ss$[ebp]
	mov	eax, DWORD PTR [edx+8]
	push	eax
	mov	ecx, DWORD PTR _ds$[ebp]
	mov	edx, DWORD PTR [ecx+8]
	push	edx
	call	_memcpy
	add	esp, 12					; 0000000cH

; 1054 : 
; 1055 :     ds->pending_out = ds->pending_buf + (ss->pending_out - ss->pending_buf);

	mov	eax, DWORD PTR _ss$[ebp]
	mov	ecx, DWORD PTR _ss$[ebp]
	mov	edx, DWORD PTR [eax+16]
	sub	edx, DWORD PTR [ecx+8]
	mov	eax, DWORD PTR _ds$[ebp]
	add	edx, DWORD PTR [eax+8]
	mov	ecx, DWORD PTR _ds$[ebp]
	mov	DWORD PTR [ecx+16], edx

; 1056 :     ds->d_buf = overlay + ds->lit_bufsize/sizeof(ush);

	mov	eax, DWORD PTR _ds$[ebp]
	mov	ecx, DWORD PTR [eax+5788]
	shr	ecx, 1
	mov	edx, DWORD PTR _overlay$[ebp]
	lea	eax, DWORD PTR [edx+ecx*2]
	mov	ecx, DWORD PTR _ds$[ebp]
	mov	DWORD PTR [ecx+5796], eax

; 1057 :     ds->l_buf = ds->pending_buf + (1+sizeof(ush))*ds->lit_bufsize;

	mov	eax, DWORD PTR _ds$[ebp]
	mov	ecx, DWORD PTR [eax+5788]
	imul	ecx, 3
	mov	edx, DWORD PTR _ds$[ebp]
	add	ecx, DWORD PTR [edx+8]
	mov	eax, DWORD PTR _ds$[ebp]
	mov	DWORD PTR [eax+5784], ecx

; 1058 : 
; 1059 :     ds->l_desc.dyn_tree = ds->dyn_ltree;

	mov	eax, DWORD PTR _ds$[ebp]
	add	eax, 148				; 00000094H
	mov	ecx, DWORD PTR _ds$[ebp]
	mov	DWORD PTR [ecx+2840], eax

; 1060 :     ds->d_desc.dyn_tree = ds->dyn_dtree;

	mov	eax, DWORD PTR _ds$[ebp]
	add	eax, 2440				; 00000988H
	mov	ecx, DWORD PTR _ds$[ebp]
	mov	DWORD PTR [ecx+2852], eax

; 1061 :     ds->bl_desc.dyn_tree = ds->bl_tree;

	mov	eax, DWORD PTR _ds$[ebp]
	add	eax, 2684				; 00000a7cH
	mov	ecx, DWORD PTR _ds$[ebp]
	mov	DWORD PTR [ecx+2864], eax

; 1062 : 
; 1063 :     return Z_OK;

	xor	eax, eax
$LN6@deflateCop:

; 1064 : #endif /* MAXSEG_64K */
; 1065 : }

	pop	edi
	pop	esi
	pop	ebx
	mov	esp, ebp
	pop	ebp
	ret	8
_deflateCopy@8 ENDP
_TEXT	ENDS
EXTRN	_match_init:PROC
; Function compile flags: /Odtp /ZI
;	COMDAT _lm_init
_TEXT	SEGMENT
_s$ = 8							; size = 4
_lm_init PROC						; COMDAT

; 1106 : {

	push	ebp
	mov	ebp, esp
	sub	esp, 64					; 00000040H
	push	ebx
	push	esi
	push	edi

; 1107 :     s->window_size = (ulg)2L*s->w_size;

	mov	eax, DWORD PTR _s$[ebp]
	mov	ecx, DWORD PTR [eax+44]
	shl	ecx, 1
	mov	edx, DWORD PTR _s$[ebp]
	mov	DWORD PTR [edx+60], ecx

; 1108 : 
; 1109 :     CLEAR_HASH(s);

	mov	eax, DWORD PTR _s$[ebp]
	mov	ecx, DWORD PTR [eax+76]
	mov	edx, DWORD PTR _s$[ebp]
	mov	eax, DWORD PTR [edx+68]
	xor	edx, edx
	mov	WORD PTR [eax+ecx*2-2], dx
	mov	eax, DWORD PTR _s$[ebp]
	mov	ecx, DWORD PTR [eax+76]
	lea	edx, DWORD PTR [ecx+ecx-2]
	push	edx
	push	0
	mov	eax, DWORD PTR _s$[ebp]
	mov	ecx, DWORD PTR [eax+68]
	push	ecx
	call	_memset
	add	esp, 12					; 0000000cH

; 1110 : 
; 1111 :     /* Set the default configuration parameters:
; 1112 :      */
; 1113 :     s->max_lazy_match   = configuration_table[s->level].max_lazy;

	mov	eax, DWORD PTR _s$[ebp]
	mov	ecx, DWORD PTR [eax+132]
	imul	ecx, 12					; 0000000cH
	movzx	edx, WORD PTR _configuration_table[ecx+2]
	mov	eax, DWORD PTR _s$[ebp]
	mov	DWORD PTR [eax+128], edx

; 1114 :     s->good_match       = configuration_table[s->level].good_length;

	mov	eax, DWORD PTR _s$[ebp]
	mov	ecx, DWORD PTR [eax+132]
	imul	ecx, 12					; 0000000cH
	movzx	edx, WORD PTR _configuration_table[ecx]
	mov	eax, DWORD PTR _s$[ebp]
	mov	DWORD PTR [eax+140], edx

; 1115 :     s->nice_match       = configuration_table[s->level].nice_length;

	mov	eax, DWORD PTR _s$[ebp]
	mov	ecx, DWORD PTR [eax+132]
	imul	ecx, 12					; 0000000cH
	movzx	edx, WORD PTR _configuration_table[ecx+4]
	mov	eax, DWORD PTR _s$[ebp]
	mov	DWORD PTR [eax+144], edx

; 1116 :     s->max_chain_length = configuration_table[s->level].max_chain;

	mov	eax, DWORD PTR _s$[ebp]
	mov	ecx, DWORD PTR [eax+132]
	imul	ecx, 12					; 0000000cH
	movzx	edx, WORD PTR _configuration_table[ecx+6]
	mov	eax, DWORD PTR _s$[ebp]
	mov	DWORD PTR [eax+124], edx

; 1117 : 
; 1118 :     s->strstart = 0;

	mov	eax, DWORD PTR _s$[ebp]
	mov	DWORD PTR [eax+108], 0

; 1119 :     s->block_start = 0L;

	mov	eax, DWORD PTR _s$[ebp]
	mov	DWORD PTR [eax+92], 0

; 1120 :     s->lookahead = 0;

	mov	eax, DWORD PTR _s$[ebp]
	mov	DWORD PTR [eax+116], 0

; 1121 :     s->insert = 0;

	mov	eax, DWORD PTR _s$[ebp]
	mov	DWORD PTR [eax+5812], 0

; 1122 :     s->match_length = s->prev_length = MIN_MATCH-1;

	mov	eax, DWORD PTR _s$[ebp]
	mov	DWORD PTR [eax+120], 2
	mov	ecx, DWORD PTR _s$[ebp]
	mov	DWORD PTR [ecx+96], 2

; 1123 :     s->match_available = 0;

	mov	eax, DWORD PTR _s$[ebp]
	mov	DWORD PTR [eax+104], 0

; 1124 :     s->ins_h = 0;

	mov	eax, DWORD PTR _s$[ebp]
	mov	DWORD PTR [eax+72], 0

; 1125 : #ifndef FASTEST
; 1126 : #ifdef ASMV
; 1127 :     match_init(); /* initialize the asm code */

	call	_match_init

; 1128 : #endif
; 1129 : #endif
; 1130 : }

	pop	edi
	pop	esi
	pop	ebx
	mov	esp, ebp
	pop	ebp
	ret	0
_lm_init ENDP
; Function compile flags: /Odtp /ZI
_TEXT	ENDS
;	COMDAT _fill_window
_TEXT	SEGMENT
tv149 = -100						; size = 4
tv138 = -100						; size = 4
_init$80878 = -32					; size = 4
_curr$80876 = -28					; size = 4
_str$80868 = -24					; size = 4
_wsize$ = -20						; size = 4
_more$ = -16						; size = 4
_p$ = -12						; size = 4
_m$ = -8						; size = 4
_n$ = -4						; size = 4
_s$ = 8							; size = 4
_fill_window PROC					; COMDAT

; 1390 : {

	push	ebp
	mov	ebp, esp
	sub	esp, 100				; 00000064H
	push	ebx
	push	esi
	push	edi

; 1391 :     register unsigned n, m;
; 1392 :     register Posf *p;
; 1393 :     unsigned more;    /* Amount of free space at the end of the window. */
; 1394 :     uInt wsize = s->w_size;

	mov	eax, DWORD PTR _s$[ebp]
	mov	ecx, DWORD PTR [eax+44]
	mov	DWORD PTR _wsize$[ebp], ecx
$LN26@fill_windo:

; 1395 : 
; 1396 :     Assert(s->lookahead < MIN_LOOKAHEAD, "already enough lookahead");
; 1397 : 
; 1398 :     do {
; 1399 :         more = (unsigned)(s->window_size -(ulg)s->lookahead -(ulg)s->strstart);

	mov	eax, DWORD PTR _s$[ebp]
	mov	ecx, DWORD PTR _s$[ebp]
	mov	edx, DWORD PTR [eax+60]
	sub	edx, DWORD PTR [ecx+116]
	mov	eax, DWORD PTR _s$[ebp]
	sub	edx, DWORD PTR [eax+108]
	mov	DWORD PTR _more$[ebp], edx

; 1400 : 
; 1401 :         /* Deal with !@#$% 64K limit: */
; 1402 :         if (sizeof(int) <= 2) {

	xor	eax, eax
	je	SHORT $LN23@fill_windo

; 1403 :             if (more == 0 && s->strstart == 0 && s->lookahead == 0) {

	cmp	DWORD PTR _more$[ebp], 0
	jne	SHORT $LN22@fill_windo
	mov	eax, DWORD PTR _s$[ebp]
	cmp	DWORD PTR [eax+108], 0
	jne	SHORT $LN22@fill_windo
	mov	eax, DWORD PTR _s$[ebp]
	cmp	DWORD PTR [eax+116], 0
	jne	SHORT $LN22@fill_windo

; 1404 :                 more = wsize;

	mov	eax, DWORD PTR _wsize$[ebp]
	mov	DWORD PTR _more$[ebp], eax
	jmp	SHORT $LN23@fill_windo
$LN22@fill_windo:

; 1405 : 
; 1406 :             } else if (more == (unsigned)(-1)) {

	cmp	DWORD PTR _more$[ebp], -1
	jne	SHORT $LN23@fill_windo

; 1407 :                 /* Very unlikely, but possible on 16 bit machine if
; 1408 :                  * strstart == 0 && lookahead == 1 (input done a byte at time)
; 1409 :                  */
; 1410 :                 more--;

	mov	eax, DWORD PTR _more$[ebp]
	sub	eax, 1
	mov	DWORD PTR _more$[ebp], eax
$LN23@fill_windo:

; 1411 :             }
; 1412 :         }
; 1413 : 
; 1414 :         /* If the window is almost full and there is insufficient lookahead,
; 1415 :          * move the upper half to the lower one to make room in the upper half.
; 1416 :          */
; 1417 :         if (s->strstart >= wsize+MAX_DIST(s)) {

	mov	eax, DWORD PTR _s$[ebp]
	mov	ecx, DWORD PTR [eax+44]
	mov	edx, DWORD PTR _wsize$[ebp]
	lea	eax, DWORD PTR [edx+ecx-262]
	mov	ecx, DWORD PTR _s$[ebp]
	cmp	DWORD PTR [ecx+108], eax
	jb	$LN19@fill_windo

; 1418 : 
; 1419 :             zmemcpy(s->window, s->window+wsize, (unsigned)wsize);

	mov	eax, DWORD PTR _wsize$[ebp]
	push	eax
	mov	ecx, DWORD PTR _s$[ebp]
	mov	edx, DWORD PTR [ecx+56]
	add	edx, DWORD PTR _wsize$[ebp]
	push	edx
	mov	eax, DWORD PTR _s$[ebp]
	mov	ecx, DWORD PTR [eax+56]
	push	ecx
	call	_memcpy
	add	esp, 12					; 0000000cH

; 1420 :             s->match_start -= wsize;

	mov	eax, DWORD PTR _s$[ebp]
	mov	ecx, DWORD PTR [eax+112]
	sub	ecx, DWORD PTR _wsize$[ebp]
	mov	edx, DWORD PTR _s$[ebp]
	mov	DWORD PTR [edx+112], ecx

; 1421 :             s->strstart    -= wsize; /* we now have strstart >= MAX_DIST */

	mov	eax, DWORD PTR _s$[ebp]
	mov	ecx, DWORD PTR [eax+108]
	sub	ecx, DWORD PTR _wsize$[ebp]
	mov	edx, DWORD PTR _s$[ebp]
	mov	DWORD PTR [edx+108], ecx

; 1422 :             s->block_start -= (long) wsize;

	mov	eax, DWORD PTR _s$[ebp]
	mov	ecx, DWORD PTR [eax+92]
	sub	ecx, DWORD PTR _wsize$[ebp]
	mov	edx, DWORD PTR _s$[ebp]
	mov	DWORD PTR [edx+92], ecx

; 1423 : 
; 1424 :             /* Slide the hash table (could be avoided with 32 bit values
; 1425 :                at the expense of memory usage). We slide even when level == 0
; 1426 :                to keep the hash table consistent if we switch back to level > 0
; 1427 :                later. (Using level 0 permanently is not an optimal usage of
; 1428 :                zlib, so we don't care about this pathological case.)
; 1429 :              */
; 1430 :             n = s->hash_size;

	mov	eax, DWORD PTR _s$[ebp]
	mov	ecx, DWORD PTR [eax+76]
	mov	DWORD PTR _n$[ebp], ecx

; 1431 :             p = &s->head[n];

	mov	eax, DWORD PTR _s$[ebp]
	mov	ecx, DWORD PTR [eax+68]
	mov	edx, DWORD PTR _n$[ebp]
	lea	eax, DWORD PTR [ecx+edx*2]
	mov	DWORD PTR _p$[ebp], eax
$LN18@fill_windo:

; 1432 :             do {
; 1433 :                 m = *--p;

	mov	eax, DWORD PTR _p$[ebp]
	sub	eax, 2
	mov	DWORD PTR _p$[ebp], eax
	mov	ecx, DWORD PTR _p$[ebp]
	movzx	edx, WORD PTR [ecx]
	mov	DWORD PTR _m$[ebp], edx

; 1434 :                 *p = (Pos)(m >= wsize ? m-wsize : NIL);

	mov	eax, DWORD PTR _m$[ebp]
	cmp	eax, DWORD PTR _wsize$[ebp]
	jb	SHORT $LN29@fill_windo
	mov	ecx, DWORD PTR _m$[ebp]
	sub	ecx, DWORD PTR _wsize$[ebp]
	mov	DWORD PTR tv138[ebp], ecx
	jmp	SHORT $LN30@fill_windo
$LN29@fill_windo:
	mov	DWORD PTR tv138[ebp], 0
$LN30@fill_windo:
	mov	edx, DWORD PTR _p$[ebp]
	mov	ax, WORD PTR tv138[ebp]
	mov	WORD PTR [edx], ax

; 1435 :             } while (--n);

	mov	eax, DWORD PTR _n$[ebp]
	sub	eax, 1
	mov	DWORD PTR _n$[ebp], eax
	jne	SHORT $LN18@fill_windo

; 1436 : 
; 1437 :             n = wsize;

	mov	eax, DWORD PTR _wsize$[ebp]
	mov	DWORD PTR _n$[ebp], eax

; 1438 : #ifndef FASTEST
; 1439 :             p = &s->prev[n];

	mov	eax, DWORD PTR _s$[ebp]
	mov	ecx, DWORD PTR [eax+64]
	mov	edx, DWORD PTR _n$[ebp]
	lea	eax, DWORD PTR [ecx+edx*2]
	mov	DWORD PTR _p$[ebp], eax
$LN15@fill_windo:

; 1440 :             do {
; 1441 :                 m = *--p;

	mov	eax, DWORD PTR _p$[ebp]
	sub	eax, 2
	mov	DWORD PTR _p$[ebp], eax
	mov	ecx, DWORD PTR _p$[ebp]
	movzx	edx, WORD PTR [ecx]
	mov	DWORD PTR _m$[ebp], edx

; 1442 :                 *p = (Pos)(m >= wsize ? m-wsize : NIL);

	mov	eax, DWORD PTR _m$[ebp]
	cmp	eax, DWORD PTR _wsize$[ebp]
	jb	SHORT $LN31@fill_windo
	mov	ecx, DWORD PTR _m$[ebp]
	sub	ecx, DWORD PTR _wsize$[ebp]
	mov	DWORD PTR tv149[ebp], ecx
	jmp	SHORT $LN32@fill_windo
$LN31@fill_windo:
	mov	DWORD PTR tv149[ebp], 0
$LN32@fill_windo:
	mov	edx, DWORD PTR _p$[ebp]
	mov	ax, WORD PTR tv149[ebp]
	mov	WORD PTR [edx], ax

; 1443 :                 /* If n is not on any hash chain, prev[n] is garbage but
; 1444 :                  * its value will never be used.
; 1445 :                  */
; 1446 :             } while (--n);

	mov	eax, DWORD PTR _n$[ebp]
	sub	eax, 1
	mov	DWORD PTR _n$[ebp], eax
	jne	SHORT $LN15@fill_windo

; 1447 : #endif
; 1448 :             more += wsize;

	mov	eax, DWORD PTR _more$[ebp]
	add	eax, DWORD PTR _wsize$[ebp]
	mov	DWORD PTR _more$[ebp], eax
$LN19@fill_windo:

; 1449 :         }
; 1450 :         if (s->strm->avail_in == 0) break;

	mov	eax, DWORD PTR _s$[ebp]
	mov	ecx, DWORD PTR [eax]
	cmp	DWORD PTR [ecx+4], 0
	jne	SHORT $LN12@fill_windo
	jmp	$LN24@fill_windo
$LN12@fill_windo:

; 1451 : 
; 1452 :         /* If there was no sliding:
; 1453 :          *    strstart <= WSIZE+MAX_DIST-1 && lookahead <= MIN_LOOKAHEAD - 1 &&
; 1454 :          *    more == window_size - lookahead - strstart
; 1455 :          * => more >= window_size - (MIN_LOOKAHEAD-1 + WSIZE + MAX_DIST-1)
; 1456 :          * => more >= window_size - 2*WSIZE + 2
; 1457 :          * In the BIG_MEM or MMAP case (not yet supported),
; 1458 :          *   window_size == input_size + MIN_LOOKAHEAD  &&
; 1459 :          *   strstart + s->lookahead <= input_size => more >= MIN_LOOKAHEAD.
; 1460 :          * Otherwise, window_size == 2*WSIZE so more >= 2.
; 1461 :          * If there was sliding, more >= WSIZE. So in all cases, more >= 2.
; 1462 :          */
; 1463 :         Assert(more >= 2, "more < 2");
; 1464 : 
; 1465 :         n = read_buf(s->strm, s->window + s->strstart + s->lookahead, more);

	mov	eax, DWORD PTR _more$[ebp]
	push	eax
	mov	ecx, DWORD PTR _s$[ebp]
	mov	edx, DWORD PTR [ecx+56]
	mov	eax, DWORD PTR _s$[ebp]
	add	edx, DWORD PTR [eax+108]
	mov	ecx, DWORD PTR _s$[ebp]
	add	edx, DWORD PTR [ecx+116]
	push	edx
	mov	edx, DWORD PTR _s$[ebp]
	mov	eax, DWORD PTR [edx]
	push	eax
	call	_read_buf
	add	esp, 12					; 0000000cH
	mov	DWORD PTR _n$[ebp], eax

; 1466 :         s->lookahead += n;

	mov	eax, DWORD PTR _s$[ebp]
	mov	ecx, DWORD PTR [eax+116]
	add	ecx, DWORD PTR _n$[ebp]
	mov	edx, DWORD PTR _s$[ebp]
	mov	DWORD PTR [edx+116], ecx

; 1467 : 
; 1468 :         /* Initialize the hash value now that we have some input: */
; 1469 :         if (s->lookahead + s->insert >= MIN_MATCH) {

	mov	eax, DWORD PTR _s$[ebp]
	mov	ecx, DWORD PTR [eax+116]
	mov	edx, DWORD PTR _s$[ebp]
	add	ecx, DWORD PTR [edx+5812]
	cmp	ecx, 3
	jb	$LN25@fill_windo

; 1470 :             uInt str = s->strstart - s->insert;

	mov	eax, DWORD PTR _s$[ebp]
	mov	ecx, DWORD PTR _s$[ebp]
	mov	edx, DWORD PTR [eax+108]
	sub	edx, DWORD PTR [ecx+5812]
	mov	DWORD PTR _str$80868[ebp], edx

; 1471 :             s->ins_h = s->window[str];

	mov	eax, DWORD PTR _s$[ebp]
	mov	ecx, DWORD PTR [eax+56]
	mov	edx, DWORD PTR _str$80868[ebp]
	movzx	eax, BYTE PTR [ecx+edx]
	mov	ecx, DWORD PTR _s$[ebp]
	mov	DWORD PTR [ecx+72], eax

; 1472 :             UPDATE_HASH(s, s->ins_h, s->window[str + 1]);

	mov	eax, DWORD PTR _s$[ebp]
	mov	ecx, DWORD PTR _s$[ebp]
	mov	edx, DWORD PTR [eax+72]
	mov	ecx, DWORD PTR [ecx+88]
	shl	edx, cl
	mov	eax, DWORD PTR _s$[ebp]
	mov	ecx, DWORD PTR [eax+56]
	mov	eax, DWORD PTR _str$80868[ebp]
	movzx	ecx, BYTE PTR [ecx+eax+1]
	xor	edx, ecx
	mov	eax, DWORD PTR _s$[ebp]
	and	edx, DWORD PTR [eax+84]
	mov	ecx, DWORD PTR _s$[ebp]
	mov	DWORD PTR [ecx+72], edx
$LN10@fill_windo:

; 1473 : #if MIN_MATCH != 3
; 1474 :             Call UPDATE_HASH() MIN_MATCH-3 more times
; 1475 : #endif
; 1476 :             while (s->insert) {

	mov	eax, DWORD PTR _s$[ebp]
	cmp	DWORD PTR [eax+5812], 0
	je	$LN25@fill_windo

; 1477 :                 UPDATE_HASH(s, s->ins_h, s->window[str + MIN_MATCH-1]);

	mov	eax, DWORD PTR _s$[ebp]
	mov	ecx, DWORD PTR _s$[ebp]
	mov	edx, DWORD PTR [eax+72]
	mov	ecx, DWORD PTR [ecx+88]
	shl	edx, cl
	mov	eax, DWORD PTR _s$[ebp]
	mov	ecx, DWORD PTR [eax+56]
	mov	eax, DWORD PTR _str$80868[ebp]
	movzx	ecx, BYTE PTR [ecx+eax+2]
	xor	edx, ecx
	mov	eax, DWORD PTR _s$[ebp]
	and	edx, DWORD PTR [eax+84]
	mov	ecx, DWORD PTR _s$[ebp]
	mov	DWORD PTR [ecx+72], edx

; 1478 : #ifndef FASTEST
; 1479 :                 s->prev[str & s->w_mask] = s->head[s->ins_h];

	mov	eax, DWORD PTR _s$[ebp]
	mov	ecx, DWORD PTR [eax+72]
	mov	edx, DWORD PTR _s$[ebp]
	mov	eax, DWORD PTR [edx+68]
	mov	edx, DWORD PTR _s$[ebp]
	mov	esi, DWORD PTR _str$80868[ebp]
	and	esi, DWORD PTR [edx+52]
	mov	edx, DWORD PTR _s$[ebp]
	mov	edx, DWORD PTR [edx+64]
	mov	ax, WORD PTR [eax+ecx*2]
	mov	WORD PTR [edx+esi*2], ax

; 1480 : #endif
; 1481 :                 s->head[s->ins_h] = (Pos)str;

	mov	eax, DWORD PTR _s$[ebp]
	mov	ecx, DWORD PTR [eax+72]
	mov	edx, DWORD PTR _s$[ebp]
	mov	eax, DWORD PTR [edx+68]
	mov	dx, WORD PTR _str$80868[ebp]
	mov	WORD PTR [eax+ecx*2], dx

; 1482 :                 str++;

	mov	eax, DWORD PTR _str$80868[ebp]
	add	eax, 1
	mov	DWORD PTR _str$80868[ebp], eax

; 1483 :                 s->insert--;

	mov	eax, DWORD PTR _s$[ebp]
	mov	ecx, DWORD PTR [eax+5812]
	sub	ecx, 1
	mov	edx, DWORD PTR _s$[ebp]
	mov	DWORD PTR [edx+5812], ecx

; 1484 :                 if (s->lookahead + s->insert < MIN_MATCH)

	mov	eax, DWORD PTR _s$[ebp]
	mov	ecx, DWORD PTR [eax+116]
	mov	edx, DWORD PTR _s$[ebp]
	add	ecx, DWORD PTR [edx+5812]
	cmp	ecx, 3
	jae	SHORT $LN8@fill_windo

; 1485 :                     break;

	jmp	SHORT $LN25@fill_windo
$LN8@fill_windo:

; 1486 :             }

	jmp	$LN10@fill_windo
$LN25@fill_windo:

; 1487 :         }
; 1488 :         /* If the whole input has less than MIN_MATCH bytes, ins_h is garbage,
; 1489 :          * but this is not important since only literal bytes will be emitted.
; 1490 :          */
; 1491 : 
; 1492 :     } while (s->lookahead < MIN_LOOKAHEAD && s->strm->avail_in != 0);

	mov	eax, DWORD PTR _s$[ebp]
	cmp	DWORD PTR [eax+116], 262		; 00000106H
	jae	SHORT $LN24@fill_windo
	mov	eax, DWORD PTR _s$[ebp]
	mov	ecx, DWORD PTR [eax]
	cmp	DWORD PTR [ecx+4], 0
	jne	$LN26@fill_windo
$LN24@fill_windo:

; 1493 : 
; 1494 :     /* If the WIN_INIT bytes after the end of the current data have never been
; 1495 :      * written, then zero those bytes in order to avoid memory check reports of
; 1496 :      * the use of uninitialized (or uninitialised as Julian writes) bytes by
; 1497 :      * the longest match routines.  Update the high water mark for the next
; 1498 :      * time through here.  WIN_INIT is set to MAX_MATCH since the longest match
; 1499 :      * routines allow scanning to strstart + MAX_MATCH, ignoring lookahead.
; 1500 :      */
; 1501 :     if (s->high_water < s->window_size) {

	mov	eax, DWORD PTR _s$[ebp]
	mov	ecx, DWORD PTR _s$[ebp]
	mov	edx, DWORD PTR [eax+5824]
	cmp	edx, DWORD PTR [ecx+60]
	jae	$LN27@fill_windo

; 1502 :         ulg curr = s->strstart + (ulg)(s->lookahead);

	mov	eax, DWORD PTR _s$[ebp]
	mov	ecx, DWORD PTR [eax+108]
	mov	edx, DWORD PTR _s$[ebp]
	add	ecx, DWORD PTR [edx+116]
	mov	DWORD PTR _curr$80876[ebp], ecx

; 1503 :         ulg init;
; 1504 : 
; 1505 :         if (s->high_water < curr) {

	mov	eax, DWORD PTR _s$[ebp]
	mov	ecx, DWORD PTR [eax+5824]
	cmp	ecx, DWORD PTR _curr$80876[ebp]
	jae	SHORT $LN5@fill_windo

; 1506 :             /* Previous high water mark below current data -- zero WIN_INIT
; 1507 :              * bytes or up to end of window, whichever is less.
; 1508 :              */
; 1509 :             init = s->window_size - curr;

	mov	eax, DWORD PTR _s$[ebp]
	mov	ecx, DWORD PTR [eax+60]
	sub	ecx, DWORD PTR _curr$80876[ebp]
	mov	DWORD PTR _init$80878[ebp], ecx

; 1510 :             if (init > WIN_INIT)

	cmp	DWORD PTR _init$80878[ebp], 258		; 00000102H
	jbe	SHORT $LN4@fill_windo

; 1511 :                 init = WIN_INIT;

	mov	DWORD PTR _init$80878[ebp], 258		; 00000102H
$LN4@fill_windo:

; 1512 :             zmemzero(s->window + curr, (unsigned)init);

	mov	eax, DWORD PTR _init$80878[ebp]
	push	eax
	push	0
	mov	ecx, DWORD PTR _s$[ebp]
	mov	edx, DWORD PTR [ecx+56]
	add	edx, DWORD PTR _curr$80876[ebp]
	push	edx
	call	_memset
	add	esp, 12					; 0000000cH

; 1513 :             s->high_water = curr + init;

	mov	eax, DWORD PTR _curr$80876[ebp]
	add	eax, DWORD PTR _init$80878[ebp]
	mov	ecx, DWORD PTR _s$[ebp]
	mov	DWORD PTR [ecx+5824], eax
	jmp	$LN27@fill_windo
$LN5@fill_windo:

; 1514 :         }
; 1515 :         else if (s->high_water < (ulg)curr + WIN_INIT) {

	mov	eax, DWORD PTR _curr$80876[ebp]
	add	eax, 258				; 00000102H
	mov	ecx, DWORD PTR _s$[ebp]
	cmp	DWORD PTR [ecx+5824], eax
	jae	SHORT $LN27@fill_windo

; 1516 :             /* High water mark at or above current data, but below current data
; 1517 :              * plus WIN_INIT -- zero out to current data plus WIN_INIT, or up
; 1518 :              * to end of window, whichever is less.
; 1519 :              */
; 1520 :             init = (ulg)curr + WIN_INIT - s->high_water;

	mov	eax, DWORD PTR _curr$80876[ebp]
	add	eax, 258				; 00000102H
	mov	ecx, DWORD PTR _s$[ebp]
	sub	eax, DWORD PTR [ecx+5824]
	mov	DWORD PTR _init$80878[ebp], eax

; 1521 :             if (init > s->window_size - s->high_water)

	mov	eax, DWORD PTR _s$[ebp]
	mov	ecx, DWORD PTR _s$[ebp]
	mov	edx, DWORD PTR [eax+60]
	sub	edx, DWORD PTR [ecx+5824]
	cmp	DWORD PTR _init$80878[ebp], edx
	jbe	SHORT $LN1@fill_windo

; 1522 :                 init = s->window_size - s->high_water;

	mov	eax, DWORD PTR _s$[ebp]
	mov	ecx, DWORD PTR _s$[ebp]
	mov	edx, DWORD PTR [eax+60]
	sub	edx, DWORD PTR [ecx+5824]
	mov	DWORD PTR _init$80878[ebp], edx
$LN1@fill_windo:

; 1523 :             zmemzero(s->window + s->high_water, (unsigned)init);

	mov	eax, DWORD PTR _init$80878[ebp]
	push	eax
	push	0
	mov	ecx, DWORD PTR _s$[ebp]
	mov	edx, DWORD PTR [ecx+56]
	mov	eax, DWORD PTR _s$[ebp]
	add	edx, DWORD PTR [eax+5824]
	push	edx
	call	_memset
	add	esp, 12					; 0000000cH

; 1524 :             s->high_water += init;

	mov	eax, DWORD PTR _s$[ebp]
	mov	ecx, DWORD PTR [eax+5824]
	add	ecx, DWORD PTR _init$80878[ebp]
	mov	edx, DWORD PTR _s$[ebp]
	mov	DWORD PTR [edx+5824], ecx
$LN27@fill_windo:

; 1525 :         }
; 1526 :     }
; 1527 : 
; 1528 :     Assert((ulg)s->strstart <= s->window_size - MIN_LOOKAHEAD,
; 1529 :            "not enough room for search");
; 1530 : }

	pop	edi
	pop	esi
	pop	ebx
	mov	esp, ebp
	pop	ebp
	ret	0
_fill_window ENDP
; Function compile flags: /Odtp /ZI
_TEXT	ENDS
;	COMDAT _read_buf
_TEXT	SEGMENT
_len$ = -4						; size = 4
_strm$ = 8						; size = 4
_buf$ = 12						; size = 4
_size$ = 16						; size = 4
_read_buf PROC						; COMDAT

; 1078 : {

	push	ebp
	mov	ebp, esp
	sub	esp, 68					; 00000044H
	push	ebx
	push	esi
	push	edi

; 1079 :     unsigned len = strm->avail_in;

	mov	eax, DWORD PTR _strm$[ebp]
	mov	ecx, DWORD PTR [eax+4]
	mov	DWORD PTR _len$[ebp], ecx

; 1080 : 
; 1081 :     if (len > size) len = size;

	mov	eax, DWORD PTR _len$[ebp]
	cmp	eax, DWORD PTR _size$[ebp]
	jbe	SHORT $LN5@read_buf
	mov	eax, DWORD PTR _size$[ebp]
	mov	DWORD PTR _len$[ebp], eax
$LN5@read_buf:

; 1082 :     if (len == 0) return 0;

	cmp	DWORD PTR _len$[ebp], 0
	jne	SHORT $LN4@read_buf
	xor	eax, eax
	jmp	$LN6@read_buf
$LN4@read_buf:

; 1083 : 
; 1084 :     strm->avail_in  -= len;

	mov	eax, DWORD PTR _strm$[ebp]
	mov	ecx, DWORD PTR [eax+4]
	sub	ecx, DWORD PTR _len$[ebp]
	mov	edx, DWORD PTR _strm$[ebp]
	mov	DWORD PTR [edx+4], ecx

; 1085 : 
; 1086 :     zmemcpy(buf, strm->next_in, len);

	mov	eax, DWORD PTR _len$[ebp]
	push	eax
	mov	ecx, DWORD PTR _strm$[ebp]
	mov	edx, DWORD PTR [ecx]
	push	edx
	mov	eax, DWORD PTR _buf$[ebp]
	push	eax
	call	_memcpy
	add	esp, 12					; 0000000cH

; 1087 :     if (strm->state->wrap == 1) {

	mov	eax, DWORD PTR _strm$[ebp]
	mov	ecx, DWORD PTR [eax+28]
	cmp	DWORD PTR [ecx+24], 1
	jne	SHORT $LN3@read_buf

; 1088 :         strm->adler = adler32(strm->adler, buf, len);

	mov	eax, DWORD PTR _len$[ebp]
	push	eax
	mov	ecx, DWORD PTR _buf$[ebp]
	push	ecx
	mov	edx, DWORD PTR _strm$[ebp]
	mov	eax, DWORD PTR [edx+48]
	push	eax
	call	_adler32@12
	mov	ecx, DWORD PTR _strm$[ebp]
	mov	DWORD PTR [ecx+48], eax
	jmp	SHORT $LN2@read_buf
$LN3@read_buf:

; 1089 :     }
; 1090 : #ifdef GZIP
; 1091 :     else if (strm->state->wrap == 2) {

	mov	eax, DWORD PTR _strm$[ebp]
	mov	ecx, DWORD PTR [eax+28]
	cmp	DWORD PTR [ecx+24], 2
	jne	SHORT $LN2@read_buf

; 1092 :         strm->adler = crc32(strm->adler, buf, len);

	mov	eax, DWORD PTR _len$[ebp]
	push	eax
	mov	ecx, DWORD PTR _buf$[ebp]
	push	ecx
	mov	edx, DWORD PTR _strm$[ebp]
	mov	eax, DWORD PTR [edx+48]
	push	eax
	call	_crc32@12
	mov	ecx, DWORD PTR _strm$[ebp]
	mov	DWORD PTR [ecx+48], eax
$LN2@read_buf:

; 1093 :     }
; 1094 : #endif
; 1095 :     strm->next_in  += len;

	mov	eax, DWORD PTR _strm$[ebp]
	mov	ecx, DWORD PTR [eax]
	add	ecx, DWORD PTR _len$[ebp]
	mov	edx, DWORD PTR _strm$[ebp]
	mov	DWORD PTR [edx], ecx

; 1096 :     strm->total_in += len;

	mov	eax, DWORD PTR _strm$[ebp]
	mov	ecx, DWORD PTR [eax+8]
	add	ecx, DWORD PTR _len$[ebp]
	mov	edx, DWORD PTR _strm$[ebp]
	mov	DWORD PTR [edx+8], ecx

; 1097 : 
; 1098 :     return (int)len;

	mov	eax, DWORD PTR _len$[ebp]
$LN6@read_buf:

; 1099 : }

	pop	edi
	pop	esi
	pop	ebx
	mov	esp, ebp
	pop	ebp
	ret	0
_read_buf ENDP
_TEXT	ENDS
EXTRN	__tr_flush_block:PROC
; Function compile flags: /Odtp /ZI
;	COMDAT _deflate_stored
_TEXT	SEGMENT
tv199 = -76						; size = 4
tv178 = -76						; size = 4
tv158 = -76						; size = 4
tv134 = -76						; size = 4
_max_start$ = -8					; size = 4
_max_block_size$ = -4					; size = 4
_s$ = 8							; size = 4
_flush$ = 12						; size = 4
_deflate_stored PROC					; COMDAT

; 1565 : {

	push	ebp
	mov	ebp, esp
	sub	esp, 76					; 0000004cH
	push	ebx
	push	esi
	push	edi

; 1566 :     /* Stored blocks are limited to 0xffff bytes, pending_buf is limited
; 1567 :      * to pending_buf_size, and each stored block has a 5 byte header:
; 1568 :      */
; 1569 :     ulg max_block_size = 0xffff;

	mov	DWORD PTR _max_block_size$[ebp], 65535	; 0000ffffH

; 1570 :     ulg max_start;
; 1571 : 
; 1572 :     if (max_block_size > s->pending_buf_size - 5) {

	mov	eax, DWORD PTR _s$[ebp]
	mov	ecx, DWORD PTR [eax+12]
	sub	ecx, 5
	cmp	DWORD PTR _max_block_size$[ebp], ecx
	jbe	SHORT $LN14@deflate_st

; 1573 :         max_block_size = s->pending_buf_size - 5;

	mov	eax, DWORD PTR _s$[ebp]
	mov	ecx, DWORD PTR [eax+12]
	sub	ecx, 5
	mov	DWORD PTR _max_block_size$[ebp], ecx
$LN14@deflate_st:

; 1574 :     }
; 1575 : 
; 1576 :     /* Copy as much as possible from input to output: */
; 1577 :     for (;;) {
; 1578 :         /* Fill the window as much as possible: */
; 1579 :         if (s->lookahead <= 1) {

	mov	eax, DWORD PTR _s$[ebp]
	cmp	DWORD PTR [eax+116], 1
	ja	SHORT $LN12@deflate_st

; 1580 : 
; 1581 :             Assert(s->strstart < s->w_size+MAX_DIST(s) ||
; 1582 :                    s->block_start >= (long)s->w_size, "slide too late");
; 1583 : 
; 1584 :             fill_window(s);

	mov	eax, DWORD PTR _s$[ebp]
	push	eax
	call	_fill_window
	add	esp, 4

; 1585 :             if (s->lookahead == 0 && flush == Z_NO_FLUSH) return need_more;

	mov	eax, DWORD PTR _s$[ebp]
	cmp	DWORD PTR [eax+116], 0
	jne	SHORT $LN11@deflate_st
	cmp	DWORD PTR _flush$[ebp], 0
	jne	SHORT $LN11@deflate_st
	xor	eax, eax
	jmp	$LN16@deflate_st
$LN11@deflate_st:

; 1586 : 
; 1587 :             if (s->lookahead == 0) break; /* flush the current block */

	mov	eax, DWORD PTR _s$[ebp]
	cmp	DWORD PTR [eax+116], 0
	jne	SHORT $LN12@deflate_st
	jmp	$LN13@deflate_st
$LN12@deflate_st:

; 1588 :         }
; 1589 :         Assert(s->block_start >= 0L, "block gone");
; 1590 : 
; 1591 :         s->strstart += s->lookahead;

	mov	eax, DWORD PTR _s$[ebp]
	mov	ecx, DWORD PTR [eax+108]
	mov	edx, DWORD PTR _s$[ebp]
	add	ecx, DWORD PTR [edx+116]
	mov	eax, DWORD PTR _s$[ebp]
	mov	DWORD PTR [eax+108], ecx

; 1592 :         s->lookahead = 0;

	mov	eax, DWORD PTR _s$[ebp]
	mov	DWORD PTR [eax+116], 0

; 1593 : 
; 1594 :         /* Emit a stored block if pending_buf will be full: */
; 1595 :         max_start = s->block_start + max_block_size;

	mov	eax, DWORD PTR _s$[ebp]
	mov	ecx, DWORD PTR [eax+92]
	add	ecx, DWORD PTR _max_block_size$[ebp]
	mov	DWORD PTR _max_start$[ebp], ecx

; 1596 :         if (s->strstart == 0 || (ulg)s->strstart >= max_start) {

	mov	eax, DWORD PTR _s$[ebp]
	cmp	DWORD PTR [eax+108], 0
	je	SHORT $LN8@deflate_st
	mov	eax, DWORD PTR _s$[ebp]
	mov	ecx, DWORD PTR [eax+108]
	cmp	ecx, DWORD PTR _max_start$[ebp]
	jb	$LN9@deflate_st
$LN8@deflate_st:

; 1597 :             /* strstart == 0 is possible when wraparound on 16-bit machine */
; 1598 :             s->lookahead = (uInt)(s->strstart - max_start);

	mov	eax, DWORD PTR _s$[ebp]
	mov	ecx, DWORD PTR [eax+108]
	sub	ecx, DWORD PTR _max_start$[ebp]
	mov	edx, DWORD PTR _s$[ebp]
	mov	DWORD PTR [edx+116], ecx

; 1599 :             s->strstart = (uInt)max_start;

	mov	eax, DWORD PTR _s$[ebp]
	mov	ecx, DWORD PTR _max_start$[ebp]
	mov	DWORD PTR [eax+108], ecx

; 1600 :             FLUSH_BLOCK(s, 0);

	mov	eax, DWORD PTR _s$[ebp]
	cmp	DWORD PTR [eax+92], 0
	jl	SHORT $LN18@deflate_st
	mov	ecx, DWORD PTR _s$[ebp]
	mov	edx, DWORD PTR [ecx+56]
	mov	eax, DWORD PTR _s$[ebp]
	add	edx, DWORD PTR [eax+92]
	mov	DWORD PTR tv134[ebp], edx
	jmp	SHORT $LN19@deflate_st
$LN18@deflate_st:
	mov	DWORD PTR tv134[ebp], 0
$LN19@deflate_st:
	push	0
	mov	ecx, DWORD PTR _s$[ebp]
	mov	edx, DWORD PTR _s$[ebp]
	mov	eax, DWORD PTR [ecx+108]
	sub	eax, DWORD PTR [edx+92]
	push	eax
	mov	ecx, DWORD PTR tv134[ebp]
	push	ecx
	mov	edx, DWORD PTR _s$[ebp]
	push	edx
	call	__tr_flush_block
	add	esp, 16					; 00000010H
	mov	eax, DWORD PTR _s$[ebp]
	mov	ecx, DWORD PTR _s$[ebp]
	mov	edx, DWORD PTR [ecx+108]
	mov	DWORD PTR [eax+92], edx
	mov	eax, DWORD PTR _s$[ebp]
	mov	ecx, DWORD PTR [eax]
	push	ecx
	call	_flush_pending
	add	esp, 4
	mov	eax, DWORD PTR _s$[ebp]
	mov	ecx, DWORD PTR [eax]
	cmp	DWORD PTR [ecx+16], 0
	jne	SHORT $LN9@deflate_st
	xor	eax, eax
	jmp	$LN16@deflate_st
$LN9@deflate_st:

; 1601 :         }
; 1602 :         /* Flush if we may have to slide, otherwise block_start may become
; 1603 :          * negative and the data will be gone:
; 1604 :          */
; 1605 :         if (s->strstart - (uInt)s->block_start >= MAX_DIST(s)) {

	mov	eax, DWORD PTR _s$[ebp]
	mov	ecx, DWORD PTR _s$[ebp]
	mov	edx, DWORD PTR [eax+108]
	sub	edx, DWORD PTR [ecx+92]
	mov	eax, DWORD PTR _s$[ebp]
	mov	ecx, DWORD PTR [eax+44]
	sub	ecx, 262				; 00000106H
	cmp	edx, ecx
	jb	SHORT $LN6@deflate_st

; 1606 :             FLUSH_BLOCK(s, 0);

	mov	eax, DWORD PTR _s$[ebp]
	cmp	DWORD PTR [eax+92], 0
	jl	SHORT $LN20@deflate_st
	mov	ecx, DWORD PTR _s$[ebp]
	mov	edx, DWORD PTR [ecx+56]
	mov	eax, DWORD PTR _s$[ebp]
	add	edx, DWORD PTR [eax+92]
	mov	DWORD PTR tv158[ebp], edx
	jmp	SHORT $LN21@deflate_st
$LN20@deflate_st:
	mov	DWORD PTR tv158[ebp], 0
$LN21@deflate_st:
	push	0
	mov	ecx, DWORD PTR _s$[ebp]
	mov	edx, DWORD PTR _s$[ebp]
	mov	eax, DWORD PTR [ecx+108]
	sub	eax, DWORD PTR [edx+92]
	push	eax
	mov	ecx, DWORD PTR tv158[ebp]
	push	ecx
	mov	edx, DWORD PTR _s$[ebp]
	push	edx
	call	__tr_flush_block
	add	esp, 16					; 00000010H
	mov	eax, DWORD PTR _s$[ebp]
	mov	ecx, DWORD PTR _s$[ebp]
	mov	edx, DWORD PTR [ecx+108]
	mov	DWORD PTR [eax+92], edx
	mov	eax, DWORD PTR _s$[ebp]
	mov	ecx, DWORD PTR [eax]
	push	ecx
	call	_flush_pending
	add	esp, 4
	mov	eax, DWORD PTR _s$[ebp]
	mov	ecx, DWORD PTR [eax]
	cmp	DWORD PTR [ecx+16], 0
	jne	SHORT $LN6@deflate_st
	xor	eax, eax
	jmp	$LN16@deflate_st
$LN6@deflate_st:

; 1607 :         }
; 1608 :     }

	jmp	$LN14@deflate_st
$LN13@deflate_st:

; 1609 :     s->insert = 0;

	mov	eax, DWORD PTR _s$[ebp]
	mov	DWORD PTR [eax+5812], 0

; 1610 :     if (flush == Z_FINISH) {

	cmp	DWORD PTR _flush$[ebp], 4
	jne	SHORT $LN4@deflate_st

; 1611 :         FLUSH_BLOCK(s, 1);

	mov	eax, DWORD PTR _s$[ebp]
	cmp	DWORD PTR [eax+92], 0
	jl	SHORT $LN22@deflate_st
	mov	ecx, DWORD PTR _s$[ebp]
	mov	edx, DWORD PTR [ecx+56]
	mov	eax, DWORD PTR _s$[ebp]
	add	edx, DWORD PTR [eax+92]
	mov	DWORD PTR tv178[ebp], edx
	jmp	SHORT $LN23@deflate_st
$LN22@deflate_st:
	mov	DWORD PTR tv178[ebp], 0
$LN23@deflate_st:
	push	1
	mov	ecx, DWORD PTR _s$[ebp]
	mov	edx, DWORD PTR _s$[ebp]
	mov	eax, DWORD PTR [ecx+108]
	sub	eax, DWORD PTR [edx+92]
	push	eax
	mov	ecx, DWORD PTR tv178[ebp]
	push	ecx
	mov	edx, DWORD PTR _s$[ebp]
	push	edx
	call	__tr_flush_block
	add	esp, 16					; 00000010H
	mov	eax, DWORD PTR _s$[ebp]
	mov	ecx, DWORD PTR _s$[ebp]
	mov	edx, DWORD PTR [ecx+108]
	mov	DWORD PTR [eax+92], edx
	mov	eax, DWORD PTR _s$[ebp]
	mov	ecx, DWORD PTR [eax]
	push	ecx
	call	_flush_pending
	add	esp, 4
	mov	eax, DWORD PTR _s$[ebp]
	mov	ecx, DWORD PTR [eax]
	cmp	DWORD PTR [ecx+16], 0
	jne	SHORT $LN3@deflate_st
	mov	eax, 2
	jmp	$LN16@deflate_st
$LN3@deflate_st:

; 1612 :         return finish_done;

	mov	eax, 3
	jmp	SHORT $LN16@deflate_st
$LN4@deflate_st:

; 1613 :     }
; 1614 :     if ((long)s->strstart > s->block_start)

	mov	eax, DWORD PTR _s$[ebp]
	mov	ecx, DWORD PTR _s$[ebp]
	mov	edx, DWORD PTR [eax+108]
	cmp	edx, DWORD PTR [ecx+92]
	jle	SHORT $LN2@deflate_st

; 1615 :         FLUSH_BLOCK(s, 0);

	mov	eax, DWORD PTR _s$[ebp]
	cmp	DWORD PTR [eax+92], 0
	jl	SHORT $LN24@deflate_st
	mov	ecx, DWORD PTR _s$[ebp]
	mov	edx, DWORD PTR [ecx+56]
	mov	eax, DWORD PTR _s$[ebp]
	add	edx, DWORD PTR [eax+92]
	mov	DWORD PTR tv199[ebp], edx
	jmp	SHORT $LN25@deflate_st
$LN24@deflate_st:
	mov	DWORD PTR tv199[ebp], 0
$LN25@deflate_st:
	push	0
	mov	ecx, DWORD PTR _s$[ebp]
	mov	edx, DWORD PTR _s$[ebp]
	mov	eax, DWORD PTR [ecx+108]
	sub	eax, DWORD PTR [edx+92]
	push	eax
	mov	ecx, DWORD PTR tv199[ebp]
	push	ecx
	mov	edx, DWORD PTR _s$[ebp]
	push	edx
	call	__tr_flush_block
	add	esp, 16					; 00000010H
	mov	eax, DWORD PTR _s$[ebp]
	mov	ecx, DWORD PTR _s$[ebp]
	mov	edx, DWORD PTR [ecx+108]
	mov	DWORD PTR [eax+92], edx
	mov	eax, DWORD PTR _s$[ebp]
	mov	ecx, DWORD PTR [eax]
	push	ecx
	call	_flush_pending
	add	esp, 4
	mov	eax, DWORD PTR _s$[ebp]
	mov	ecx, DWORD PTR [eax]
	cmp	DWORD PTR [ecx+16], 0
	jne	SHORT $LN2@deflate_st
	xor	eax, eax
	jmp	SHORT $LN16@deflate_st
$LN2@deflate_st:

; 1616 :     return block_done;

	mov	eax, 1
$LN16@deflate_st:

; 1617 : }

	pop	edi
	pop	esi
	pop	ebx
	mov	esp, ebp
	pop	ebp
	ret	0
_deflate_stored ENDP
_TEXT	ENDS
EXTRN	__dist_code:BYTE
EXTRN	__length_code:BYTE
EXTRN	_longest_match:PROC
; Function compile flags: /Odtp /ZI
;	COMDAT _deflate_fast
_TEXT	SEGMENT
tv394 = -88						; size = 4
tv374 = -88						; size = 4
tv362 = -88						; size = 4
tv350 = -88						; size = 4
tv272 = -88						; size = 4
tv204 = -88						; size = 4
_cc$80960 = -17						; size = 1
_dist$80952 = -16					; size = 2
_len$80951 = -9						; size = 1
_bflush$ = -8						; size = 4
_hash_head$ = -4					; size = 4
_s$ = 8							; size = 4
_flush$ = 12						; size = 4
_deflate_fast PROC					; COMDAT

; 1629 : {

	push	ebp
	mov	ebp, esp
	sub	esp, 88					; 00000058H
	push	ebx
	push	esi
	push	edi
$LN20@deflate_fa:

; 1630 :     IPos hash_head;       /* head of the hash chain */
; 1631 :     int bflush;           /* set if current block must be flushed */
; 1632 : 
; 1633 :     for (;;) {
; 1634 :         /* Make sure that we always have enough lookahead, except
; 1635 :          * at the end of the input file. We need MAX_MATCH bytes
; 1636 :          * for the next match, plus MIN_MATCH bytes to insert the
; 1637 :          * string following the next match.
; 1638 :          */
; 1639 :         if (s->lookahead < MIN_LOOKAHEAD) {

	mov	eax, DWORD PTR _s$[ebp]
	cmp	DWORD PTR [eax+116], 262		; 00000106H
	jae	SHORT $LN18@deflate_fa

; 1640 :             fill_window(s);

	mov	eax, DWORD PTR _s$[ebp]
	push	eax
	call	_fill_window
	add	esp, 4

; 1641 :             if (s->lookahead < MIN_LOOKAHEAD && flush == Z_NO_FLUSH) {

	mov	eax, DWORD PTR _s$[ebp]
	cmp	DWORD PTR [eax+116], 262		; 00000106H
	jae	SHORT $LN17@deflate_fa
	cmp	DWORD PTR _flush$[ebp], 0
	jne	SHORT $LN17@deflate_fa

; 1642 :                 return need_more;

	xor	eax, eax
	jmp	$LN21@deflate_fa
$LN17@deflate_fa:

; 1643 :             }
; 1644 :             if (s->lookahead == 0) break; /* flush the current block */

	mov	eax, DWORD PTR _s$[ebp]
	cmp	DWORD PTR [eax+116], 0
	jne	SHORT $LN18@deflate_fa
	jmp	$LN19@deflate_fa
$LN18@deflate_fa:

; 1645 :         }
; 1646 : 
; 1647 :         /* Insert the string window[strstart .. strstart+2] in the
; 1648 :          * dictionary, and set hash_head to the head of the hash chain:
; 1649 :          */
; 1650 :         hash_head = NIL;

	mov	DWORD PTR _hash_head$[ebp], 0

; 1651 :         if (s->lookahead >= MIN_MATCH) {

	mov	eax, DWORD PTR _s$[ebp]
	cmp	DWORD PTR [eax+116], 3
	jb	$LN15@deflate_fa

; 1652 :             INSERT_STRING(s, s->strstart, hash_head);

	mov	eax, DWORD PTR _s$[ebp]
	mov	ecx, DWORD PTR _s$[ebp]
	mov	edx, DWORD PTR [eax+72]
	mov	ecx, DWORD PTR [ecx+88]
	shl	edx, cl
	mov	eax, DWORD PTR _s$[ebp]
	mov	ecx, DWORD PTR [eax+108]
	mov	eax, DWORD PTR _s$[ebp]
	mov	eax, DWORD PTR [eax+56]
	movzx	ecx, BYTE PTR [eax+ecx+2]
	xor	edx, ecx
	mov	eax, DWORD PTR _s$[ebp]
	and	edx, DWORD PTR [eax+84]
	mov	ecx, DWORD PTR _s$[ebp]
	mov	DWORD PTR [ecx+72], edx
	mov	edx, DWORD PTR _s$[ebp]
	mov	eax, DWORD PTR [edx+72]
	mov	ecx, DWORD PTR _s$[ebp]
	mov	edx, DWORD PTR [ecx+68]
	mov	ecx, DWORD PTR _s$[ebp]
	mov	esi, DWORD PTR _s$[ebp]
	mov	ecx, DWORD PTR [ecx+108]
	and	ecx, DWORD PTR [esi+52]
	mov	esi, DWORD PTR _s$[ebp]
	mov	esi, DWORD PTR [esi+64]
	mov	dx, WORD PTR [edx+eax*2]
	mov	WORD PTR [esi+ecx*2], dx
	mov	eax, DWORD PTR _s$[ebp]
	mov	ecx, DWORD PTR _s$[ebp]
	mov	edx, DWORD PTR [eax+108]
	and	edx, DWORD PTR [ecx+52]
	mov	eax, DWORD PTR _s$[ebp]
	mov	ecx, DWORD PTR [eax+64]
	movzx	edx, WORD PTR [ecx+edx*2]
	mov	DWORD PTR _hash_head$[ebp], edx
	mov	eax, DWORD PTR _s$[ebp]
	mov	ecx, DWORD PTR [eax+72]
	mov	edx, DWORD PTR _s$[ebp]
	mov	eax, DWORD PTR [edx+68]
	mov	edx, DWORD PTR _s$[ebp]
	mov	dx, WORD PTR [edx+108]
	mov	WORD PTR [eax+ecx*2], dx
$LN15@deflate_fa:

; 1653 :         }
; 1654 : 
; 1655 :         /* Find the longest match, discarding those <= prev_length.
; 1656 :          * At this point we have always match_length < MIN_MATCH
; 1657 :          */
; 1658 :         if (hash_head != NIL && s->strstart - hash_head <= MAX_DIST(s)) {

	cmp	DWORD PTR _hash_head$[ebp], 0
	je	SHORT $LN14@deflate_fa
	mov	eax, DWORD PTR _s$[ebp]
	mov	ecx, DWORD PTR [eax+108]
	sub	ecx, DWORD PTR _hash_head$[ebp]
	mov	edx, DWORD PTR _s$[ebp]
	mov	eax, DWORD PTR [edx+44]
	sub	eax, 262				; 00000106H
	cmp	ecx, eax
	ja	SHORT $LN14@deflate_fa

; 1659 :             /* To simplify the code, we prevent matches with the string
; 1660 :              * of window index 0 (in particular we have to avoid a match
; 1661 :              * of the string with itself at the start of the input file).
; 1662 :              */
; 1663 :             s->match_length = longest_match (s, hash_head);

	mov	eax, DWORD PTR _hash_head$[ebp]
	push	eax
	mov	ecx, DWORD PTR _s$[ebp]
	push	ecx
	call	_longest_match
	add	esp, 8
	mov	edx, DWORD PTR _s$[ebp]
	mov	DWORD PTR [edx+96], eax
$LN14@deflate_fa:

; 1664 :             /* longest_match() sets match_start */
; 1665 :         }
; 1666 :         if (s->match_length >= MIN_MATCH) {

	mov	eax, DWORD PTR _s$[ebp]
	cmp	DWORD PTR [eax+96], 3
	jb	$LN13@deflate_fa

; 1667 :             check_match(s, s->strstart, s->match_start, s->match_length);
; 1668 : 
; 1669 :             _tr_tally_dist(s, s->strstart - s->match_start,
; 1670 :                            s->match_length - MIN_MATCH, bflush);

	mov	eax, DWORD PTR _s$[ebp]
	mov	ecx, DWORD PTR [eax+96]
	sub	ecx, 3
	mov	BYTE PTR _len$80951[ebp], cl
	mov	eax, DWORD PTR _s$[ebp]
	mov	ecx, DWORD PTR _s$[ebp]
	mov	edx, DWORD PTR [eax+108]
	sub	edx, DWORD PTR [ecx+112]
	mov	WORD PTR _dist$80952[ebp], dx
	mov	eax, DWORD PTR _s$[ebp]
	mov	ecx, DWORD PTR [eax+5792]
	mov	edx, DWORD PTR _s$[ebp]
	mov	eax, DWORD PTR [edx+5796]
	mov	dx, WORD PTR _dist$80952[ebp]
	mov	WORD PTR [eax+ecx*2], dx
	mov	eax, DWORD PTR _s$[ebp]
	mov	ecx, DWORD PTR [eax+5784]
	mov	edx, DWORD PTR _s$[ebp]
	mov	eax, DWORD PTR [edx+5792]
	mov	dl, BYTE PTR _len$80951[ebp]
	mov	BYTE PTR [ecx+eax], dl
	mov	eax, DWORD PTR _s$[ebp]
	mov	ecx, DWORD PTR [eax+5792]
	add	ecx, 1
	mov	edx, DWORD PTR _s$[ebp]
	mov	DWORD PTR [edx+5792], ecx
	mov	ax, WORD PTR _dist$80952[ebp]
	sub	ax, 1
	mov	WORD PTR _dist$80952[ebp], ax
	movzx	eax, BYTE PTR _len$80951[ebp]
	movzx	ecx, BYTE PTR __length_code[eax]
	mov	edx, DWORD PTR _s$[ebp]
	mov	ax, WORD PTR [edx+ecx*4+1176]
	add	ax, 1
	movzx	ecx, BYTE PTR _len$80951[ebp]
	movzx	edx, BYTE PTR __length_code[ecx]
	mov	ecx, DWORD PTR _s$[ebp]
	mov	WORD PTR [ecx+edx*4+1176], ax
	movzx	eax, WORD PTR _dist$80952[ebp]
	cmp	eax, 256				; 00000100H
	jge	SHORT $LN23@deflate_fa
	movzx	ecx, WORD PTR _dist$80952[ebp]
	movzx	edx, BYTE PTR __dist_code[ecx]
	mov	DWORD PTR tv204[ebp], edx
	jmp	SHORT $LN24@deflate_fa
$LN23@deflate_fa:
	movzx	eax, WORD PTR _dist$80952[ebp]
	sar	eax, 7
	movzx	ecx, BYTE PTR __dist_code[eax+256]
	mov	DWORD PTR tv204[ebp], ecx
$LN24@deflate_fa:
	mov	edx, DWORD PTR tv204[ebp]
	mov	eax, DWORD PTR _s$[ebp]
	mov	cx, WORD PTR [eax+edx*4+2440]
	add	cx, 1
	mov	edx, DWORD PTR tv204[ebp]
	mov	eax, DWORD PTR _s$[ebp]
	mov	WORD PTR [eax+edx*4+2440], cx
	mov	eax, DWORD PTR _s$[ebp]
	mov	ecx, DWORD PTR [eax+5788]
	sub	ecx, 1
	mov	edx, DWORD PTR _s$[ebp]
	xor	eax, eax
	cmp	DWORD PTR [edx+5792], ecx
	sete	al
	mov	DWORD PTR _bflush$[ebp], eax

; 1671 : 
; 1672 :             s->lookahead -= s->match_length;

	mov	eax, DWORD PTR _s$[ebp]
	mov	ecx, DWORD PTR _s$[ebp]
	mov	edx, DWORD PTR [eax+116]
	sub	edx, DWORD PTR [ecx+96]
	mov	eax, DWORD PTR _s$[ebp]
	mov	DWORD PTR [eax+116], edx

; 1673 : 
; 1674 :             /* Insert new strings in the hash table only if the match length
; 1675 :              * is not too large. This saves time but degrades compression.
; 1676 :              */
; 1677 : #ifndef FASTEST
; 1678 :             if (s->match_length <= s->max_insert_length &&
; 1679 :                 s->lookahead >= MIN_MATCH) {

	mov	eax, DWORD PTR _s$[ebp]
	mov	ecx, DWORD PTR _s$[ebp]
	mov	edx, DWORD PTR [eax+96]
	cmp	edx, DWORD PTR [ecx+128]
	ja	$LN12@deflate_fa
	mov	eax, DWORD PTR _s$[ebp]
	cmp	DWORD PTR [eax+116], 3
	jb	$LN12@deflate_fa

; 1680 :                 s->match_length--; /* string at strstart already in table */

	mov	eax, DWORD PTR _s$[ebp]
	mov	ecx, DWORD PTR [eax+96]
	sub	ecx, 1
	mov	edx, DWORD PTR _s$[ebp]
	mov	DWORD PTR [edx+96], ecx
$LN11@deflate_fa:

; 1681 :                 do {
; 1682 :                     s->strstart++;

	mov	eax, DWORD PTR _s$[ebp]
	mov	ecx, DWORD PTR [eax+108]
	add	ecx, 1
	mov	edx, DWORD PTR _s$[ebp]
	mov	DWORD PTR [edx+108], ecx

; 1683 :                     INSERT_STRING(s, s->strstart, hash_head);

	mov	eax, DWORD PTR _s$[ebp]
	mov	ecx, DWORD PTR _s$[ebp]
	mov	edx, DWORD PTR [eax+72]
	mov	ecx, DWORD PTR [ecx+88]
	shl	edx, cl
	mov	eax, DWORD PTR _s$[ebp]
	mov	ecx, DWORD PTR [eax+108]
	mov	eax, DWORD PTR _s$[ebp]
	mov	eax, DWORD PTR [eax+56]
	movzx	ecx, BYTE PTR [eax+ecx+2]
	xor	edx, ecx
	mov	eax, DWORD PTR _s$[ebp]
	and	edx, DWORD PTR [eax+84]
	mov	ecx, DWORD PTR _s$[ebp]
	mov	DWORD PTR [ecx+72], edx
	mov	edx, DWORD PTR _s$[ebp]
	mov	eax, DWORD PTR [edx+72]
	mov	ecx, DWORD PTR _s$[ebp]
	mov	edx, DWORD PTR [ecx+68]
	mov	ecx, DWORD PTR _s$[ebp]
	mov	esi, DWORD PTR _s$[ebp]
	mov	ecx, DWORD PTR [ecx+108]
	and	ecx, DWORD PTR [esi+52]
	mov	esi, DWORD PTR _s$[ebp]
	mov	esi, DWORD PTR [esi+64]
	mov	dx, WORD PTR [edx+eax*2]
	mov	WORD PTR [esi+ecx*2], dx
	mov	eax, DWORD PTR _s$[ebp]
	mov	ecx, DWORD PTR _s$[ebp]
	mov	edx, DWORD PTR [eax+108]
	and	edx, DWORD PTR [ecx+52]
	mov	eax, DWORD PTR _s$[ebp]
	mov	ecx, DWORD PTR [eax+64]
	movzx	edx, WORD PTR [ecx+edx*2]
	mov	DWORD PTR _hash_head$[ebp], edx
	mov	eax, DWORD PTR _s$[ebp]
	mov	ecx, DWORD PTR [eax+72]
	mov	edx, DWORD PTR _s$[ebp]
	mov	eax, DWORD PTR [edx+68]
	mov	edx, DWORD PTR _s$[ebp]
	mov	dx, WORD PTR [edx+108]
	mov	WORD PTR [eax+ecx*2], dx

; 1684 :                     /* strstart never exceeds WSIZE-MAX_MATCH, so there are
; 1685 :                      * always MIN_MATCH bytes ahead.
; 1686 :                      */
; 1687 :                 } while (--s->match_length != 0);

	mov	eax, DWORD PTR _s$[ebp]
	mov	ecx, DWORD PTR [eax+96]
	sub	ecx, 1
	mov	DWORD PTR tv272[ebp], ecx
	mov	edx, DWORD PTR _s$[ebp]
	mov	eax, DWORD PTR tv272[ebp]
	mov	DWORD PTR [edx+96], eax
	cmp	DWORD PTR tv272[ebp], 0
	jne	$LN11@deflate_fa

; 1688 :                 s->strstart++;

	mov	eax, DWORD PTR _s$[ebp]
	mov	ecx, DWORD PTR [eax+108]
	add	ecx, 1
	mov	edx, DWORD PTR _s$[ebp]
	mov	DWORD PTR [edx+108], ecx

; 1689 :             } else

	jmp	SHORT $LN8@deflate_fa
$LN12@deflate_fa:

; 1690 : #endif
; 1691 :             {
; 1692 :                 s->strstart += s->match_length;

	mov	eax, DWORD PTR _s$[ebp]
	mov	ecx, DWORD PTR [eax+108]
	mov	edx, DWORD PTR _s$[ebp]
	add	ecx, DWORD PTR [edx+96]
	mov	eax, DWORD PTR _s$[ebp]
	mov	DWORD PTR [eax+108], ecx

; 1693 :                 s->match_length = 0;

	mov	eax, DWORD PTR _s$[ebp]
	mov	DWORD PTR [eax+96], 0

; 1694 :                 s->ins_h = s->window[s->strstart];

	mov	eax, DWORD PTR _s$[ebp]
	mov	ecx, DWORD PTR [eax+56]
	mov	edx, DWORD PTR _s$[ebp]
	mov	eax, DWORD PTR [edx+108]
	movzx	ecx, BYTE PTR [ecx+eax]
	mov	edx, DWORD PTR _s$[ebp]
	mov	DWORD PTR [edx+72], ecx

; 1695 :                 UPDATE_HASH(s, s->ins_h, s->window[s->strstart+1]);

	mov	eax, DWORD PTR _s$[ebp]
	mov	ecx, DWORD PTR _s$[ebp]
	mov	edx, DWORD PTR [eax+72]
	mov	ecx, DWORD PTR [ecx+88]
	shl	edx, cl
	mov	eax, DWORD PTR _s$[ebp]
	mov	ecx, DWORD PTR [eax+108]
	mov	eax, DWORD PTR _s$[ebp]
	mov	eax, DWORD PTR [eax+56]
	movzx	ecx, BYTE PTR [eax+ecx+1]
	xor	edx, ecx
	mov	eax, DWORD PTR _s$[ebp]
	and	edx, DWORD PTR [eax+84]
	mov	ecx, DWORD PTR _s$[ebp]
	mov	DWORD PTR [ecx+72], edx
$LN8@deflate_fa:

; 1696 : #if MIN_MATCH != 3
; 1697 :                 Call UPDATE_HASH() MIN_MATCH-3 more times
; 1698 : #endif
; 1699 :                 /* If lookahead < MIN_MATCH, ins_h is garbage, but it does not
; 1700 :                  * matter since it will be recomputed at next deflate call.
; 1701 :                  */
; 1702 :             }
; 1703 :         } else {

	jmp	$LN7@deflate_fa
$LN13@deflate_fa:

; 1704 :             /* No match, output a literal byte */
; 1705 :             Tracevv((stderr,"%c", s->window[s->strstart]));
; 1706 :             _tr_tally_lit (s, s->window[s->strstart], bflush);

	mov	eax, DWORD PTR _s$[ebp]
	mov	ecx, DWORD PTR [eax+56]
	mov	edx, DWORD PTR _s$[ebp]
	mov	eax, DWORD PTR [edx+108]
	mov	cl, BYTE PTR [ecx+eax]
	mov	BYTE PTR _cc$80960[ebp], cl
	mov	eax, DWORD PTR _s$[ebp]
	mov	ecx, DWORD PTR [eax+5792]
	mov	edx, DWORD PTR _s$[ebp]
	mov	eax, DWORD PTR [edx+5796]
	xor	edx, edx
	mov	WORD PTR [eax+ecx*2], dx
	mov	eax, DWORD PTR _s$[ebp]
	mov	ecx, DWORD PTR [eax+5784]
	mov	edx, DWORD PTR _s$[ebp]
	mov	eax, DWORD PTR [edx+5792]
	mov	dl, BYTE PTR _cc$80960[ebp]
	mov	BYTE PTR [ecx+eax], dl
	mov	eax, DWORD PTR _s$[ebp]
	mov	ecx, DWORD PTR [eax+5792]
	add	ecx, 1
	mov	edx, DWORD PTR _s$[ebp]
	mov	DWORD PTR [edx+5792], ecx
	movzx	eax, BYTE PTR _cc$80960[ebp]
	mov	ecx, DWORD PTR _s$[ebp]
	mov	dx, WORD PTR [ecx+eax*4+148]
	add	dx, 1
	movzx	eax, BYTE PTR _cc$80960[ebp]
	mov	ecx, DWORD PTR _s$[ebp]
	mov	WORD PTR [ecx+eax*4+148], dx
	mov	eax, DWORD PTR _s$[ebp]
	mov	ecx, DWORD PTR [eax+5788]
	sub	ecx, 1
	mov	edx, DWORD PTR _s$[ebp]
	xor	eax, eax
	cmp	DWORD PTR [edx+5792], ecx
	sete	al
	mov	DWORD PTR _bflush$[ebp], eax

; 1707 :             s->lookahead--;

	mov	eax, DWORD PTR _s$[ebp]
	mov	ecx, DWORD PTR [eax+116]
	sub	ecx, 1
	mov	edx, DWORD PTR _s$[ebp]
	mov	DWORD PTR [edx+116], ecx

; 1708 :             s->strstart++;

	mov	eax, DWORD PTR _s$[ebp]
	mov	ecx, DWORD PTR [eax+108]
	add	ecx, 1
	mov	edx, DWORD PTR _s$[ebp]
	mov	DWORD PTR [edx+108], ecx
$LN7@deflate_fa:

; 1709 :         }
; 1710 :         if (bflush) FLUSH_BLOCK(s, 0);

	cmp	DWORD PTR _bflush$[ebp], 0
	je	SHORT $LN6@deflate_fa
	mov	eax, DWORD PTR _s$[ebp]
	cmp	DWORD PTR [eax+92], 0
	jl	SHORT $LN25@deflate_fa
	mov	ecx, DWORD PTR _s$[ebp]
	mov	edx, DWORD PTR [ecx+56]
	mov	eax, DWORD PTR _s$[ebp]
	add	edx, DWORD PTR [eax+92]
	mov	DWORD PTR tv350[ebp], edx
	jmp	SHORT $LN26@deflate_fa
$LN25@deflate_fa:
	mov	DWORD PTR tv350[ebp], 0
$LN26@deflate_fa:
	push	0
	mov	ecx, DWORD PTR _s$[ebp]
	mov	edx, DWORD PTR _s$[ebp]
	mov	eax, DWORD PTR [ecx+108]
	sub	eax, DWORD PTR [edx+92]
	push	eax
	mov	ecx, DWORD PTR tv350[ebp]
	push	ecx
	mov	edx, DWORD PTR _s$[ebp]
	push	edx
	call	__tr_flush_block
	add	esp, 16					; 00000010H
	mov	eax, DWORD PTR _s$[ebp]
	mov	ecx, DWORD PTR _s$[ebp]
	mov	edx, DWORD PTR [ecx+108]
	mov	DWORD PTR [eax+92], edx
	mov	eax, DWORD PTR _s$[ebp]
	mov	ecx, DWORD PTR [eax]
	push	ecx
	call	_flush_pending
	add	esp, 4
	mov	eax, DWORD PTR _s$[ebp]
	mov	ecx, DWORD PTR [eax]
	cmp	DWORD PTR [ecx+16], 0
	jne	SHORT $LN6@deflate_fa
	xor	eax, eax
	jmp	$LN21@deflate_fa
$LN6@deflate_fa:

; 1711 :     }

	jmp	$LN20@deflate_fa
$LN19@deflate_fa:

; 1712 :     s->insert = s->strstart < MIN_MATCH-1 ? s->strstart : MIN_MATCH-1;

	mov	eax, DWORD PTR _s$[ebp]
	cmp	DWORD PTR [eax+108], 2
	jae	SHORT $LN27@deflate_fa
	mov	ecx, DWORD PTR _s$[ebp]
	mov	edx, DWORD PTR [ecx+108]
	mov	DWORD PTR tv362[ebp], edx
	jmp	SHORT $LN28@deflate_fa
$LN27@deflate_fa:
	mov	DWORD PTR tv362[ebp], 2
$LN28@deflate_fa:
	mov	eax, DWORD PTR _s$[ebp]
	mov	ecx, DWORD PTR tv362[ebp]
	mov	DWORD PTR [eax+5812], ecx

; 1713 :     if (flush == Z_FINISH) {

	cmp	DWORD PTR _flush$[ebp], 4
	jne	SHORT $LN4@deflate_fa

; 1714 :         FLUSH_BLOCK(s, 1);

	mov	eax, DWORD PTR _s$[ebp]
	cmp	DWORD PTR [eax+92], 0
	jl	SHORT $LN29@deflate_fa
	mov	ecx, DWORD PTR _s$[ebp]
	mov	edx, DWORD PTR [ecx+56]
	mov	eax, DWORD PTR _s$[ebp]
	add	edx, DWORD PTR [eax+92]
	mov	DWORD PTR tv374[ebp], edx
	jmp	SHORT $LN30@deflate_fa
$LN29@deflate_fa:
	mov	DWORD PTR tv374[ebp], 0
$LN30@deflate_fa:
	push	1
	mov	ecx, DWORD PTR _s$[ebp]
	mov	edx, DWORD PTR _s$[ebp]
	mov	eax, DWORD PTR [ecx+108]
	sub	eax, DWORD PTR [edx+92]
	push	eax
	mov	ecx, DWORD PTR tv374[ebp]
	push	ecx
	mov	edx, DWORD PTR _s$[ebp]
	push	edx
	call	__tr_flush_block
	add	esp, 16					; 00000010H
	mov	eax, DWORD PTR _s$[ebp]
	mov	ecx, DWORD PTR _s$[ebp]
	mov	edx, DWORD PTR [ecx+108]
	mov	DWORD PTR [eax+92], edx
	mov	eax, DWORD PTR _s$[ebp]
	mov	ecx, DWORD PTR [eax]
	push	ecx
	call	_flush_pending
	add	esp, 4
	mov	eax, DWORD PTR _s$[ebp]
	mov	ecx, DWORD PTR [eax]
	cmp	DWORD PTR [ecx+16], 0
	jne	SHORT $LN3@deflate_fa
	mov	eax, 2
	jmp	$LN21@deflate_fa
$LN3@deflate_fa:

; 1715 :         return finish_done;

	mov	eax, 3
	jmp	SHORT $LN21@deflate_fa
$LN4@deflate_fa:

; 1716 :     }
; 1717 :     if (s->last_lit)

	mov	eax, DWORD PTR _s$[ebp]
	cmp	DWORD PTR [eax+5792], 0
	je	SHORT $LN2@deflate_fa

; 1718 :         FLUSH_BLOCK(s, 0);

	mov	eax, DWORD PTR _s$[ebp]
	cmp	DWORD PTR [eax+92], 0
	jl	SHORT $LN31@deflate_fa
	mov	ecx, DWORD PTR _s$[ebp]
	mov	edx, DWORD PTR [ecx+56]
	mov	eax, DWORD PTR _s$[ebp]
	add	edx, DWORD PTR [eax+92]
	mov	DWORD PTR tv394[ebp], edx
	jmp	SHORT $LN32@deflate_fa
$LN31@deflate_fa:
	mov	DWORD PTR tv394[ebp], 0
$LN32@deflate_fa:
	push	0
	mov	ecx, DWORD PTR _s$[ebp]
	mov	edx, DWORD PTR _s$[ebp]
	mov	eax, DWORD PTR [ecx+108]
	sub	eax, DWORD PTR [edx+92]
	push	eax
	mov	ecx, DWORD PTR tv394[ebp]
	push	ecx
	mov	edx, DWORD PTR _s$[ebp]
	push	edx
	call	__tr_flush_block
	add	esp, 16					; 00000010H
	mov	eax, DWORD PTR _s$[ebp]
	mov	ecx, DWORD PTR _s$[ebp]
	mov	edx, DWORD PTR [ecx+108]
	mov	DWORD PTR [eax+92], edx
	mov	eax, DWORD PTR _s$[ebp]
	mov	ecx, DWORD PTR [eax]
	push	ecx
	call	_flush_pending
	add	esp, 4
	mov	eax, DWORD PTR _s$[ebp]
	mov	ecx, DWORD PTR [eax]
	cmp	DWORD PTR [ecx+16], 0
	jne	SHORT $LN2@deflate_fa
	xor	eax, eax
	jmp	SHORT $LN21@deflate_fa
$LN2@deflate_fa:

; 1719 :     return block_done;

	mov	eax, 1
$LN21@deflate_fa:

; 1720 : }

	pop	edi
	pop	esi
	pop	ebx
	mov	esp, ebp
	pop	ebp
	ret	0
_deflate_fast ENDP
; Function compile flags: /Odtp /ZI
_TEXT	ENDS
;	COMDAT _deflate_slow
_TEXT	SEGMENT
tv462 = -92						; size = 4
tv442 = -92						; size = 4
tv430 = -92						; size = 4
tv366 = -92						; size = 4
tv313 = -92						; size = 4
tv294 = -92						; size = 4
tv256 = -92						; size = 4
tv231 = -92						; size = 4
_cc$81027 = -22						; size = 1
_cc$81017 = -21						; size = 1
_dist$81002 = -20					; size = 2
_len$81001 = -13					; size = 1
_max_insert$81000 = -12					; size = 4
_bflush$ = -8						; size = 4
_hash_head$ = -4					; size = 4
_s$ = 8							; size = 4
_flush$ = 12						; size = 4
_deflate_slow PROC					; COMDAT

; 1731 : {

	push	ebp
	mov	ebp, esp
	sub	esp, 92					; 0000005cH
	push	ebx
	push	esi
	push	edi
$LN26@deflate_sl:

; 1732 :     IPos hash_head;          /* head of hash chain */
; 1733 :     int bflush;              /* set if current block must be flushed */
; 1734 : 
; 1735 :     /* Process the input block. */
; 1736 :     for (;;) {
; 1737 :         /* Make sure that we always have enough lookahead, except
; 1738 :          * at the end of the input file. We need MAX_MATCH bytes
; 1739 :          * for the next match, plus MIN_MATCH bytes to insert the
; 1740 :          * string following the next match.
; 1741 :          */
; 1742 :         if (s->lookahead < MIN_LOOKAHEAD) {

	mov	eax, DWORD PTR _s$[ebp]
	cmp	DWORD PTR [eax+116], 262		; 00000106H
	jae	SHORT $LN24@deflate_sl

; 1743 :             fill_window(s);

	mov	eax, DWORD PTR _s$[ebp]
	push	eax
	call	_fill_window
	add	esp, 4

; 1744 :             if (s->lookahead < MIN_LOOKAHEAD && flush == Z_NO_FLUSH) {

	mov	eax, DWORD PTR _s$[ebp]
	cmp	DWORD PTR [eax+116], 262		; 00000106H
	jae	SHORT $LN23@deflate_sl
	cmp	DWORD PTR _flush$[ebp], 0
	jne	SHORT $LN23@deflate_sl

; 1745 :                 return need_more;

	xor	eax, eax
	jmp	$LN27@deflate_sl
$LN23@deflate_sl:

; 1746 :             }
; 1747 :             if (s->lookahead == 0) break; /* flush the current block */

	mov	eax, DWORD PTR _s$[ebp]
	cmp	DWORD PTR [eax+116], 0
	jne	SHORT $LN24@deflate_sl
	jmp	$LN25@deflate_sl
$LN24@deflate_sl:

; 1748 :         }
; 1749 : 
; 1750 :         /* Insert the string window[strstart .. strstart+2] in the
; 1751 :          * dictionary, and set hash_head to the head of the hash chain:
; 1752 :          */
; 1753 :         hash_head = NIL;

	mov	DWORD PTR _hash_head$[ebp], 0

; 1754 :         if (s->lookahead >= MIN_MATCH) {

	mov	eax, DWORD PTR _s$[ebp]
	cmp	DWORD PTR [eax+116], 3
	jb	$LN21@deflate_sl

; 1755 :             INSERT_STRING(s, s->strstart, hash_head);

	mov	eax, DWORD PTR _s$[ebp]
	mov	ecx, DWORD PTR _s$[ebp]
	mov	edx, DWORD PTR [eax+72]
	mov	ecx, DWORD PTR [ecx+88]
	shl	edx, cl
	mov	eax, DWORD PTR _s$[ebp]
	mov	ecx, DWORD PTR [eax+108]
	mov	eax, DWORD PTR _s$[ebp]
	mov	eax, DWORD PTR [eax+56]
	movzx	ecx, BYTE PTR [eax+ecx+2]
	xor	edx, ecx
	mov	eax, DWORD PTR _s$[ebp]
	and	edx, DWORD PTR [eax+84]
	mov	ecx, DWORD PTR _s$[ebp]
	mov	DWORD PTR [ecx+72], edx
	mov	edx, DWORD PTR _s$[ebp]
	mov	eax, DWORD PTR [edx+72]
	mov	ecx, DWORD PTR _s$[ebp]
	mov	edx, DWORD PTR [ecx+68]
	mov	ecx, DWORD PTR _s$[ebp]
	mov	esi, DWORD PTR _s$[ebp]
	mov	ecx, DWORD PTR [ecx+108]
	and	ecx, DWORD PTR [esi+52]
	mov	esi, DWORD PTR _s$[ebp]
	mov	esi, DWORD PTR [esi+64]
	mov	dx, WORD PTR [edx+eax*2]
	mov	WORD PTR [esi+ecx*2], dx
	mov	eax, DWORD PTR _s$[ebp]
	mov	ecx, DWORD PTR _s$[ebp]
	mov	edx, DWORD PTR [eax+108]
	and	edx, DWORD PTR [ecx+52]
	mov	eax, DWORD PTR _s$[ebp]
	mov	ecx, DWORD PTR [eax+64]
	movzx	edx, WORD PTR [ecx+edx*2]
	mov	DWORD PTR _hash_head$[ebp], edx
	mov	eax, DWORD PTR _s$[ebp]
	mov	ecx, DWORD PTR [eax+72]
	mov	edx, DWORD PTR _s$[ebp]
	mov	eax, DWORD PTR [edx+68]
	mov	edx, DWORD PTR _s$[ebp]
	mov	dx, WORD PTR [edx+108]
	mov	WORD PTR [eax+ecx*2], dx
$LN21@deflate_sl:

; 1756 :         }
; 1757 : 
; 1758 :         /* Find the longest match, discarding those <= prev_length.
; 1759 :          */
; 1760 :         s->prev_length = s->match_length, s->prev_match = s->match_start;

	mov	eax, DWORD PTR _s$[ebp]
	mov	ecx, DWORD PTR _s$[ebp]
	mov	edx, DWORD PTR [ecx+96]
	mov	DWORD PTR [eax+120], edx
	mov	eax, DWORD PTR _s$[ebp]
	mov	ecx, DWORD PTR _s$[ebp]
	mov	edx, DWORD PTR [ecx+112]
	mov	DWORD PTR [eax+100], edx

; 1761 :         s->match_length = MIN_MATCH-1;

	mov	eax, DWORD PTR _s$[ebp]
	mov	DWORD PTR [eax+96], 2

; 1762 : 
; 1763 :         if (hash_head != NIL && s->prev_length < s->max_lazy_match &&
; 1764 :             s->strstart - hash_head <= MAX_DIST(s)) {

	cmp	DWORD PTR _hash_head$[ebp], 0
	je	SHORT $LN20@deflate_sl
	mov	eax, DWORD PTR _s$[ebp]
	mov	ecx, DWORD PTR _s$[ebp]
	mov	edx, DWORD PTR [eax+120]
	cmp	edx, DWORD PTR [ecx+128]
	jae	SHORT $LN20@deflate_sl
	mov	eax, DWORD PTR _s$[ebp]
	mov	ecx, DWORD PTR [eax+108]
	sub	ecx, DWORD PTR _hash_head$[ebp]
	mov	edx, DWORD PTR _s$[ebp]
	mov	eax, DWORD PTR [edx+44]
	sub	eax, 262				; 00000106H
	cmp	ecx, eax
	ja	SHORT $LN20@deflate_sl

; 1765 :             /* To simplify the code, we prevent matches with the string
; 1766 :              * of window index 0 (in particular we have to avoid a match
; 1767 :              * of the string with itself at the start of the input file).
; 1768 :              */
; 1769 :             s->match_length = longest_match (s, hash_head);

	mov	eax, DWORD PTR _hash_head$[ebp]
	push	eax
	mov	ecx, DWORD PTR _s$[ebp]
	push	ecx
	call	_longest_match
	add	esp, 8
	mov	edx, DWORD PTR _s$[ebp]
	mov	DWORD PTR [edx+96], eax

; 1770 :             /* longest_match() sets match_start */
; 1771 : 
; 1772 :             if (s->match_length <= 5 && (s->strategy == Z_FILTERED
; 1773 : #if TOO_FAR <= 32767
; 1774 :                 || (s->match_length == MIN_MATCH &&
; 1775 :                     s->strstart - s->match_start > TOO_FAR)
; 1776 : #endif
; 1777 :                 )) {

	mov	eax, DWORD PTR _s$[ebp]
	cmp	DWORD PTR [eax+96], 5
	ja	SHORT $LN20@deflate_sl
	mov	eax, DWORD PTR _s$[ebp]
	cmp	DWORD PTR [eax+136], 1
	je	SHORT $LN18@deflate_sl
	mov	eax, DWORD PTR _s$[ebp]
	cmp	DWORD PTR [eax+96], 3
	jne	SHORT $LN20@deflate_sl
	mov	eax, DWORD PTR _s$[ebp]
	mov	ecx, DWORD PTR _s$[ebp]
	mov	edx, DWORD PTR [eax+108]
	sub	edx, DWORD PTR [ecx+112]
	cmp	edx, 4096				; 00001000H
	jbe	SHORT $LN20@deflate_sl
$LN18@deflate_sl:

; 1778 : 
; 1779 :                 /* If prev_match is also MIN_MATCH, match_start is garbage
; 1780 :                  * but we will ignore the current match anyway.
; 1781 :                  */
; 1782 :                 s->match_length = MIN_MATCH-1;

	mov	eax, DWORD PTR _s$[ebp]
	mov	DWORD PTR [eax+96], 2
$LN20@deflate_sl:

; 1783 :             }
; 1784 :         }
; 1785 :         /* If there was a match at the previous step and the current
; 1786 :          * match is not better, output the previous match:
; 1787 :          */
; 1788 :         if (s->prev_length >= MIN_MATCH && s->match_length <= s->prev_length) {

	mov	eax, DWORD PTR _s$[ebp]
	cmp	DWORD PTR [eax+120], 3
	jb	$LN17@deflate_sl
	mov	eax, DWORD PTR _s$[ebp]
	mov	ecx, DWORD PTR _s$[ebp]
	mov	edx, DWORD PTR [eax+96]
	cmp	edx, DWORD PTR [ecx+120]
	ja	$LN17@deflate_sl

; 1789 :             uInt max_insert = s->strstart + s->lookahead - MIN_MATCH;

	mov	eax, DWORD PTR _s$[ebp]
	mov	ecx, DWORD PTR [eax+108]
	mov	edx, DWORD PTR _s$[ebp]
	mov	eax, DWORD PTR [edx+116]
	lea	ecx, DWORD PTR [ecx+eax-3]
	mov	DWORD PTR _max_insert$81000[ebp], ecx

; 1790 :             /* Do not insert strings in hash table beyond this. */
; 1791 : 
; 1792 :             check_match(s, s->strstart-1, s->prev_match, s->prev_length);
; 1793 : 
; 1794 :             _tr_tally_dist(s, s->strstart -1 - s->prev_match,
; 1795 :                            s->prev_length - MIN_MATCH, bflush);

	mov	eax, DWORD PTR _s$[ebp]
	mov	ecx, DWORD PTR [eax+120]
	sub	ecx, 3
	mov	BYTE PTR _len$81001[ebp], cl
	mov	eax, DWORD PTR _s$[ebp]
	mov	ecx, DWORD PTR [eax+108]
	sub	ecx, 1
	mov	edx, DWORD PTR _s$[ebp]
	sub	ecx, DWORD PTR [edx+100]
	mov	WORD PTR _dist$81002[ebp], cx
	mov	eax, DWORD PTR _s$[ebp]
	mov	ecx, DWORD PTR [eax+5792]
	mov	edx, DWORD PTR _s$[ebp]
	mov	eax, DWORD PTR [edx+5796]
	mov	dx, WORD PTR _dist$81002[ebp]
	mov	WORD PTR [eax+ecx*2], dx
	mov	eax, DWORD PTR _s$[ebp]
	mov	ecx, DWORD PTR [eax+5784]
	mov	edx, DWORD PTR _s$[ebp]
	mov	eax, DWORD PTR [edx+5792]
	mov	dl, BYTE PTR _len$81001[ebp]
	mov	BYTE PTR [ecx+eax], dl
	mov	eax, DWORD PTR _s$[ebp]
	mov	ecx, DWORD PTR [eax+5792]
	add	ecx, 1
	mov	edx, DWORD PTR _s$[ebp]
	mov	DWORD PTR [edx+5792], ecx
	mov	ax, WORD PTR _dist$81002[ebp]
	sub	ax, 1
	mov	WORD PTR _dist$81002[ebp], ax
	movzx	eax, BYTE PTR _len$81001[ebp]
	movzx	ecx, BYTE PTR __length_code[eax]
	mov	edx, DWORD PTR _s$[ebp]
	mov	ax, WORD PTR [edx+ecx*4+1176]
	add	ax, 1
	movzx	ecx, BYTE PTR _len$81001[ebp]
	movzx	edx, BYTE PTR __length_code[ecx]
	mov	ecx, DWORD PTR _s$[ebp]
	mov	WORD PTR [ecx+edx*4+1176], ax
	movzx	eax, WORD PTR _dist$81002[ebp]
	cmp	eax, 256				; 00000100H
	jge	SHORT $LN29@deflate_sl
	movzx	ecx, WORD PTR _dist$81002[ebp]
	movzx	edx, BYTE PTR __dist_code[ecx]
	mov	DWORD PTR tv231[ebp], edx
	jmp	SHORT $LN30@deflate_sl
$LN29@deflate_sl:
	movzx	eax, WORD PTR _dist$81002[ebp]
	sar	eax, 7
	movzx	ecx, BYTE PTR __dist_code[eax+256]
	mov	DWORD PTR tv231[ebp], ecx
$LN30@deflate_sl:
	mov	edx, DWORD PTR tv231[ebp]
	mov	eax, DWORD PTR _s$[ebp]
	mov	cx, WORD PTR [eax+edx*4+2440]
	add	cx, 1
	mov	edx, DWORD PTR tv231[ebp]
	mov	eax, DWORD PTR _s$[ebp]
	mov	WORD PTR [eax+edx*4+2440], cx
	mov	eax, DWORD PTR _s$[ebp]
	mov	ecx, DWORD PTR [eax+5788]
	sub	ecx, 1
	mov	edx, DWORD PTR _s$[ebp]
	xor	eax, eax
	cmp	DWORD PTR [edx+5792], ecx
	sete	al
	mov	DWORD PTR _bflush$[ebp], eax

; 1796 : 
; 1797 :             /* Insert in hash table all strings up to the end of the match.
; 1798 :              * strstart-1 and strstart are already inserted. If there is not
; 1799 :              * enough lookahead, the last two strings are not inserted in
; 1800 :              * the hash table.
; 1801 :              */
; 1802 :             s->lookahead -= s->prev_length-1;

	mov	eax, DWORD PTR _s$[ebp]
	mov	ecx, DWORD PTR [eax+120]
	sub	ecx, 1
	mov	edx, DWORD PTR _s$[ebp]
	mov	eax, DWORD PTR [edx+116]
	sub	eax, ecx
	mov	ecx, DWORD PTR _s$[ebp]
	mov	DWORD PTR [ecx+116], eax

; 1803 :             s->prev_length -= 2;

	mov	eax, DWORD PTR _s$[ebp]
	mov	ecx, DWORD PTR [eax+120]
	sub	ecx, 2
	mov	edx, DWORD PTR _s$[ebp]
	mov	DWORD PTR [edx+120], ecx
$LN16@deflate_sl:

; 1804 :             do {
; 1805 :                 if (++s->strstart <= max_insert) {

	mov	eax, DWORD PTR _s$[ebp]
	mov	ecx, DWORD PTR [eax+108]
	add	ecx, 1
	mov	DWORD PTR tv256[ebp], ecx
	mov	edx, DWORD PTR _s$[ebp]
	mov	eax, DWORD PTR tv256[ebp]
	mov	DWORD PTR [edx+108], eax
	mov	ecx, DWORD PTR tv256[ebp]
	cmp	ecx, DWORD PTR _max_insert$81000[ebp]
	ja	$LN15@deflate_sl

; 1806 :                     INSERT_STRING(s, s->strstart, hash_head);

	mov	eax, DWORD PTR _s$[ebp]
	mov	ecx, DWORD PTR _s$[ebp]
	mov	edx, DWORD PTR [eax+72]
	mov	ecx, DWORD PTR [ecx+88]
	shl	edx, cl
	mov	eax, DWORD PTR _s$[ebp]
	mov	ecx, DWORD PTR [eax+108]
	mov	eax, DWORD PTR _s$[ebp]
	mov	eax, DWORD PTR [eax+56]
	movzx	ecx, BYTE PTR [eax+ecx+2]
	xor	edx, ecx
	mov	eax, DWORD PTR _s$[ebp]
	and	edx, DWORD PTR [eax+84]
	mov	ecx, DWORD PTR _s$[ebp]
	mov	DWORD PTR [ecx+72], edx
	mov	edx, DWORD PTR _s$[ebp]
	mov	eax, DWORD PTR [edx+72]
	mov	ecx, DWORD PTR _s$[ebp]
	mov	edx, DWORD PTR [ecx+68]
	mov	ecx, DWORD PTR _s$[ebp]
	mov	esi, DWORD PTR _s$[ebp]
	mov	ecx, DWORD PTR [ecx+108]
	and	ecx, DWORD PTR [esi+52]
	mov	esi, DWORD PTR _s$[ebp]
	mov	esi, DWORD PTR [esi+64]
	mov	dx, WORD PTR [edx+eax*2]
	mov	WORD PTR [esi+ecx*2], dx
	mov	eax, DWORD PTR _s$[ebp]
	mov	ecx, DWORD PTR _s$[ebp]
	mov	edx, DWORD PTR [eax+108]
	and	edx, DWORD PTR [ecx+52]
	mov	eax, DWORD PTR _s$[ebp]
	mov	ecx, DWORD PTR [eax+64]
	movzx	edx, WORD PTR [ecx+edx*2]
	mov	DWORD PTR _hash_head$[ebp], edx
	mov	eax, DWORD PTR _s$[ebp]
	mov	ecx, DWORD PTR [eax+72]
	mov	edx, DWORD PTR _s$[ebp]
	mov	eax, DWORD PTR [edx+68]
	mov	edx, DWORD PTR _s$[ebp]
	mov	dx, WORD PTR [edx+108]
	mov	WORD PTR [eax+ecx*2], dx
$LN15@deflate_sl:

; 1807 :                 }
; 1808 :             } while (--s->prev_length != 0);

	mov	eax, DWORD PTR _s$[ebp]
	mov	ecx, DWORD PTR [eax+120]
	sub	ecx, 1
	mov	DWORD PTR tv294[ebp], ecx
	mov	edx, DWORD PTR _s$[ebp]
	mov	eax, DWORD PTR tv294[ebp]
	mov	DWORD PTR [edx+120], eax
	cmp	DWORD PTR tv294[ebp], 0
	jne	$LN16@deflate_sl

; 1809 :             s->match_available = 0;

	mov	eax, DWORD PTR _s$[ebp]
	mov	DWORD PTR [eax+104], 0

; 1810 :             s->match_length = MIN_MATCH-1;

	mov	eax, DWORD PTR _s$[ebp]
	mov	DWORD PTR [eax+96], 2

; 1811 :             s->strstart++;

	mov	eax, DWORD PTR _s$[ebp]
	mov	ecx, DWORD PTR [eax+108]
	add	ecx, 1
	mov	edx, DWORD PTR _s$[ebp]
	mov	DWORD PTR [edx+108], ecx

; 1812 : 
; 1813 :             if (bflush) FLUSH_BLOCK(s, 0);

	cmp	DWORD PTR _bflush$[ebp], 0
	je	SHORT $LN12@deflate_sl
	mov	eax, DWORD PTR _s$[ebp]
	cmp	DWORD PTR [eax+92], 0
	jl	SHORT $LN31@deflate_sl
	mov	ecx, DWORD PTR _s$[ebp]
	mov	edx, DWORD PTR [ecx+56]
	mov	eax, DWORD PTR _s$[ebp]
	add	edx, DWORD PTR [eax+92]
	mov	DWORD PTR tv313[ebp], edx
	jmp	SHORT $LN32@deflate_sl
$LN31@deflate_sl:
	mov	DWORD PTR tv313[ebp], 0
$LN32@deflate_sl:
	push	0
	mov	ecx, DWORD PTR _s$[ebp]
	mov	edx, DWORD PTR _s$[ebp]
	mov	eax, DWORD PTR [ecx+108]
	sub	eax, DWORD PTR [edx+92]
	push	eax
	mov	ecx, DWORD PTR tv313[ebp]
	push	ecx
	mov	edx, DWORD PTR _s$[ebp]
	push	edx
	call	__tr_flush_block
	add	esp, 16					; 00000010H
	mov	eax, DWORD PTR _s$[ebp]
	mov	ecx, DWORD PTR _s$[ebp]
	mov	edx, DWORD PTR [ecx+108]
	mov	DWORD PTR [eax+92], edx
	mov	eax, DWORD PTR _s$[ebp]
	mov	ecx, DWORD PTR [eax]
	push	ecx
	call	_flush_pending
	add	esp, 4
	mov	eax, DWORD PTR _s$[ebp]
	mov	ecx, DWORD PTR [eax]
	cmp	DWORD PTR [ecx+16], 0
	jne	SHORT $LN12@deflate_sl
	xor	eax, eax
	jmp	$LN27@deflate_sl
$LN12@deflate_sl:
	jmp	$LN10@deflate_sl
$LN17@deflate_sl:

; 1814 : 
; 1815 :         } else if (s->match_available) {

	mov	eax, DWORD PTR _s$[ebp]
	cmp	DWORD PTR [eax+104], 0
	je	$LN9@deflate_sl

; 1816 :             /* If there was no match at the previous position, output a
; 1817 :              * single literal. If there was a match but the current match
; 1818 :              * is longer, truncate the previous match to a single literal.
; 1819 :              */
; 1820 :             Tracevv((stderr,"%c", s->window[s->strstart-1]));
; 1821 :             _tr_tally_lit(s, s->window[s->strstart-1], bflush);

	mov	eax, DWORD PTR _s$[ebp]
	mov	ecx, DWORD PTR [eax+108]
	mov	edx, DWORD PTR _s$[ebp]
	mov	eax, DWORD PTR [edx+56]
	mov	cl, BYTE PTR [ecx+eax-1]
	mov	BYTE PTR _cc$81017[ebp], cl
	mov	eax, DWORD PTR _s$[ebp]
	mov	ecx, DWORD PTR [eax+5792]
	mov	edx, DWORD PTR _s$[ebp]
	mov	eax, DWORD PTR [edx+5796]
	xor	edx, edx
	mov	WORD PTR [eax+ecx*2], dx
	mov	eax, DWORD PTR _s$[ebp]
	mov	ecx, DWORD PTR [eax+5784]
	mov	edx, DWORD PTR _s$[ebp]
	mov	eax, DWORD PTR [edx+5792]
	mov	dl, BYTE PTR _cc$81017[ebp]
	mov	BYTE PTR [ecx+eax], dl
	mov	eax, DWORD PTR _s$[ebp]
	mov	ecx, DWORD PTR [eax+5792]
	add	ecx, 1
	mov	edx, DWORD PTR _s$[ebp]
	mov	DWORD PTR [edx+5792], ecx
	movzx	eax, BYTE PTR _cc$81017[ebp]
	mov	ecx, DWORD PTR _s$[ebp]
	mov	dx, WORD PTR [ecx+eax*4+148]
	add	dx, 1
	movzx	eax, BYTE PTR _cc$81017[ebp]
	mov	ecx, DWORD PTR _s$[ebp]
	mov	WORD PTR [ecx+eax*4+148], dx
	mov	eax, DWORD PTR _s$[ebp]
	mov	ecx, DWORD PTR [eax+5788]
	sub	ecx, 1
	mov	edx, DWORD PTR _s$[ebp]
	xor	eax, eax
	cmp	DWORD PTR [edx+5792], ecx
	sete	al
	mov	DWORD PTR _bflush$[ebp], eax

; 1822 :             if (bflush) {

	cmp	DWORD PTR _bflush$[ebp], 0
	je	SHORT $LN8@deflate_sl

; 1823 :                 FLUSH_BLOCK_ONLY(s, 0);

	mov	eax, DWORD PTR _s$[ebp]
	cmp	DWORD PTR [eax+92], 0
	jl	SHORT $LN33@deflate_sl
	mov	ecx, DWORD PTR _s$[ebp]
	mov	edx, DWORD PTR [ecx+56]
	mov	eax, DWORD PTR _s$[ebp]
	add	edx, DWORD PTR [eax+92]
	mov	DWORD PTR tv366[ebp], edx
	jmp	SHORT $LN34@deflate_sl
$LN33@deflate_sl:
	mov	DWORD PTR tv366[ebp], 0
$LN34@deflate_sl:
	push	0
	mov	ecx, DWORD PTR _s$[ebp]
	mov	edx, DWORD PTR _s$[ebp]
	mov	eax, DWORD PTR [ecx+108]
	sub	eax, DWORD PTR [edx+92]
	push	eax
	mov	ecx, DWORD PTR tv366[ebp]
	push	ecx
	mov	edx, DWORD PTR _s$[ebp]
	push	edx
	call	__tr_flush_block
	add	esp, 16					; 00000010H
	mov	eax, DWORD PTR _s$[ebp]
	mov	ecx, DWORD PTR _s$[ebp]
	mov	edx, DWORD PTR [ecx+108]
	mov	DWORD PTR [eax+92], edx
	mov	eax, DWORD PTR _s$[ebp]
	mov	ecx, DWORD PTR [eax]
	push	ecx
	call	_flush_pending
	add	esp, 4
$LN8@deflate_sl:

; 1824 :             }
; 1825 :             s->strstart++;

	mov	eax, DWORD PTR _s$[ebp]
	mov	ecx, DWORD PTR [eax+108]
	add	ecx, 1
	mov	edx, DWORD PTR _s$[ebp]
	mov	DWORD PTR [edx+108], ecx

; 1826 :             s->lookahead--;

	mov	eax, DWORD PTR _s$[ebp]
	mov	ecx, DWORD PTR [eax+116]
	sub	ecx, 1
	mov	edx, DWORD PTR _s$[ebp]
	mov	DWORD PTR [edx+116], ecx

; 1827 :             if (s->strm->avail_out == 0) return need_more;

	mov	eax, DWORD PTR _s$[ebp]
	mov	ecx, DWORD PTR [eax]
	cmp	DWORD PTR [ecx+16], 0
	jne	SHORT $LN7@deflate_sl
	xor	eax, eax
	jmp	$LN27@deflate_sl
$LN7@deflate_sl:

; 1828 :         } else {

	jmp	SHORT $LN10@deflate_sl
$LN9@deflate_sl:

; 1829 :             /* There is no previous match to compare with, wait for
; 1830 :              * the next step to decide.
; 1831 :              */
; 1832 :             s->match_available = 1;

	mov	eax, DWORD PTR _s$[ebp]
	mov	DWORD PTR [eax+104], 1

; 1833 :             s->strstart++;

	mov	eax, DWORD PTR _s$[ebp]
	mov	ecx, DWORD PTR [eax+108]
	add	ecx, 1
	mov	edx, DWORD PTR _s$[ebp]
	mov	DWORD PTR [edx+108], ecx

; 1834 :             s->lookahead--;

	mov	eax, DWORD PTR _s$[ebp]
	mov	ecx, DWORD PTR [eax+116]
	sub	ecx, 1
	mov	edx, DWORD PTR _s$[ebp]
	mov	DWORD PTR [edx+116], ecx
$LN10@deflate_sl:

; 1835 :         }
; 1836 :     }

	jmp	$LN26@deflate_sl
$LN25@deflate_sl:

; 1837 :     Assert (flush != Z_NO_FLUSH, "no flush?");
; 1838 :     if (s->match_available) {

	mov	eax, DWORD PTR _s$[ebp]
	cmp	DWORD PTR [eax+104], 0
	je	$LN5@deflate_sl

; 1839 :         Tracevv((stderr,"%c", s->window[s->strstart-1]));
; 1840 :         _tr_tally_lit(s, s->window[s->strstart-1], bflush);

	mov	eax, DWORD PTR _s$[ebp]
	mov	ecx, DWORD PTR [eax+108]
	mov	edx, DWORD PTR _s$[ebp]
	mov	eax, DWORD PTR [edx+56]
	mov	cl, BYTE PTR [ecx+eax-1]
	mov	BYTE PTR _cc$81027[ebp], cl
	mov	eax, DWORD PTR _s$[ebp]
	mov	ecx, DWORD PTR [eax+5792]
	mov	edx, DWORD PTR _s$[ebp]
	mov	eax, DWORD PTR [edx+5796]
	xor	edx, edx
	mov	WORD PTR [eax+ecx*2], dx
	mov	eax, DWORD PTR _s$[ebp]
	mov	ecx, DWORD PTR [eax+5784]
	mov	edx, DWORD PTR _s$[ebp]
	mov	eax, DWORD PTR [edx+5792]
	mov	dl, BYTE PTR _cc$81027[ebp]
	mov	BYTE PTR [ecx+eax], dl
	mov	eax, DWORD PTR _s$[ebp]
	mov	ecx, DWORD PTR [eax+5792]
	add	ecx, 1
	mov	edx, DWORD PTR _s$[ebp]
	mov	DWORD PTR [edx+5792], ecx
	movzx	eax, BYTE PTR _cc$81027[ebp]
	mov	ecx, DWORD PTR _s$[ebp]
	mov	dx, WORD PTR [ecx+eax*4+148]
	add	dx, 1
	movzx	eax, BYTE PTR _cc$81027[ebp]
	mov	ecx, DWORD PTR _s$[ebp]
	mov	WORD PTR [ecx+eax*4+148], dx
	mov	eax, DWORD PTR _s$[ebp]
	mov	ecx, DWORD PTR [eax+5788]
	sub	ecx, 1
	mov	edx, DWORD PTR _s$[ebp]
	xor	eax, eax
	cmp	DWORD PTR [edx+5792], ecx
	sete	al
	mov	DWORD PTR _bflush$[ebp], eax

; 1841 :         s->match_available = 0;

	mov	eax, DWORD PTR _s$[ebp]
	mov	DWORD PTR [eax+104], 0
$LN5@deflate_sl:

; 1842 :     }
; 1843 :     s->insert = s->strstart < MIN_MATCH-1 ? s->strstart : MIN_MATCH-1;

	mov	eax, DWORD PTR _s$[ebp]
	cmp	DWORD PTR [eax+108], 2
	jae	SHORT $LN35@deflate_sl
	mov	ecx, DWORD PTR _s$[ebp]
	mov	edx, DWORD PTR [ecx+108]
	mov	DWORD PTR tv430[ebp], edx
	jmp	SHORT $LN36@deflate_sl
$LN35@deflate_sl:
	mov	DWORD PTR tv430[ebp], 2
$LN36@deflate_sl:
	mov	eax, DWORD PTR _s$[ebp]
	mov	ecx, DWORD PTR tv430[ebp]
	mov	DWORD PTR [eax+5812], ecx

; 1844 :     if (flush == Z_FINISH) {

	cmp	DWORD PTR _flush$[ebp], 4
	jne	SHORT $LN4@deflate_sl

; 1845 :         FLUSH_BLOCK(s, 1);

	mov	eax, DWORD PTR _s$[ebp]
	cmp	DWORD PTR [eax+92], 0
	jl	SHORT $LN37@deflate_sl
	mov	ecx, DWORD PTR _s$[ebp]
	mov	edx, DWORD PTR [ecx+56]
	mov	eax, DWORD PTR _s$[ebp]
	add	edx, DWORD PTR [eax+92]
	mov	DWORD PTR tv442[ebp], edx
	jmp	SHORT $LN38@deflate_sl
$LN37@deflate_sl:
	mov	DWORD PTR tv442[ebp], 0
$LN38@deflate_sl:
	push	1
	mov	ecx, DWORD PTR _s$[ebp]
	mov	edx, DWORD PTR _s$[ebp]
	mov	eax, DWORD PTR [ecx+108]
	sub	eax, DWORD PTR [edx+92]
	push	eax
	mov	ecx, DWORD PTR tv442[ebp]
	push	ecx
	mov	edx, DWORD PTR _s$[ebp]
	push	edx
	call	__tr_flush_block
	add	esp, 16					; 00000010H
	mov	eax, DWORD PTR _s$[ebp]
	mov	ecx, DWORD PTR _s$[ebp]
	mov	edx, DWORD PTR [ecx+108]
	mov	DWORD PTR [eax+92], edx
	mov	eax, DWORD PTR _s$[ebp]
	mov	ecx, DWORD PTR [eax]
	push	ecx
	call	_flush_pending
	add	esp, 4
	mov	eax, DWORD PTR _s$[ebp]
	mov	ecx, DWORD PTR [eax]
	cmp	DWORD PTR [ecx+16], 0
	jne	SHORT $LN3@deflate_sl
	mov	eax, 2
	jmp	$LN27@deflate_sl
$LN3@deflate_sl:

; 1846 :         return finish_done;

	mov	eax, 3
	jmp	SHORT $LN27@deflate_sl
$LN4@deflate_sl:

; 1847 :     }
; 1848 :     if (s->last_lit)

	mov	eax, DWORD PTR _s$[ebp]
	cmp	DWORD PTR [eax+5792], 0
	je	SHORT $LN2@deflate_sl

; 1849 :         FLUSH_BLOCK(s, 0);

	mov	eax, DWORD PTR _s$[ebp]
	cmp	DWORD PTR [eax+92], 0
	jl	SHORT $LN39@deflate_sl
	mov	ecx, DWORD PTR _s$[ebp]
	mov	edx, DWORD PTR [ecx+56]
	mov	eax, DWORD PTR _s$[ebp]
	add	edx, DWORD PTR [eax+92]
	mov	DWORD PTR tv462[ebp], edx
	jmp	SHORT $LN40@deflate_sl
$LN39@deflate_sl:
	mov	DWORD PTR tv462[ebp], 0
$LN40@deflate_sl:
	push	0
	mov	ecx, DWORD PTR _s$[ebp]
	mov	edx, DWORD PTR _s$[ebp]
	mov	eax, DWORD PTR [ecx+108]
	sub	eax, DWORD PTR [edx+92]
	push	eax
	mov	ecx, DWORD PTR tv462[ebp]
	push	ecx
	mov	edx, DWORD PTR _s$[ebp]
	push	edx
	call	__tr_flush_block
	add	esp, 16					; 00000010H
	mov	eax, DWORD PTR _s$[ebp]
	mov	ecx, DWORD PTR _s$[ebp]
	mov	edx, DWORD PTR [ecx+108]
	mov	DWORD PTR [eax+92], edx
	mov	eax, DWORD PTR _s$[ebp]
	mov	ecx, DWORD PTR [eax]
	push	ecx
	call	_flush_pending
	add	esp, 4
	mov	eax, DWORD PTR _s$[ebp]
	mov	ecx, DWORD PTR [eax]
	cmp	DWORD PTR [ecx+16], 0
	jne	SHORT $LN2@deflate_sl
	xor	eax, eax
	jmp	SHORT $LN27@deflate_sl
$LN2@deflate_sl:

; 1850 :     return block_done;

	mov	eax, 1
$LN27@deflate_sl:

; 1851 : }

	pop	edi
	pop	esi
	pop	ebx
	mov	esp, ebp
	pop	ebp
	ret	0
_deflate_slow ENDP
; Function compile flags: /Odtp /ZI
_TEXT	ENDS
;	COMDAT _deflate_rle
_TEXT	SEGMENT
tv324 = -96						; size = 4
tv304 = -96						; size = 4
tv284 = -96						; size = 4
tv210 = -96						; size = 4
_cc$81068 = -25						; size = 1
_dist$81066 = -24					; size = 2
_len$81065 = -17					; size = 1
_strend$ = -16						; size = 4
_scan$ = -12						; size = 4
_prev$ = -8						; size = 4
_bflush$ = -4						; size = 4
_s$ = 8							; size = 4
_flush$ = 12						; size = 4
_deflate_rle PROC					; COMDAT

; 1862 : {

	push	ebp
	mov	ebp, esp
	sub	esp, 96					; 00000060H
	push	ebx
	push	esi
	push	edi
$LN20@deflate_rl:

; 1863 :     int bflush;             /* set if current block must be flushed */
; 1864 :     uInt prev;              /* byte at distance one to match */
; 1865 :     Bytef *scan, *strend;   /* scan goes up to strend for length of run */
; 1866 : 
; 1867 :     for (;;) {
; 1868 :         /* Make sure that we always have enough lookahead, except
; 1869 :          * at the end of the input file. We need MAX_MATCH bytes
; 1870 :          * for the longest run, plus one for the unrolled loop.
; 1871 :          */
; 1872 :         if (s->lookahead <= MAX_MATCH) {

	mov	eax, DWORD PTR _s$[ebp]
	cmp	DWORD PTR [eax+116], 258		; 00000102H
	ja	SHORT $LN18@deflate_rl

; 1873 :             fill_window(s);

	mov	eax, DWORD PTR _s$[ebp]
	push	eax
	call	_fill_window
	add	esp, 4

; 1874 :             if (s->lookahead <= MAX_MATCH && flush == Z_NO_FLUSH) {

	mov	eax, DWORD PTR _s$[ebp]
	cmp	DWORD PTR [eax+116], 258		; 00000102H
	ja	SHORT $LN17@deflate_rl
	cmp	DWORD PTR _flush$[ebp], 0
	jne	SHORT $LN17@deflate_rl

; 1875 :                 return need_more;

	xor	eax, eax
	jmp	$LN21@deflate_rl
$LN17@deflate_rl:

; 1876 :             }
; 1877 :             if (s->lookahead == 0) break; /* flush the current block */

	mov	eax, DWORD PTR _s$[ebp]
	cmp	DWORD PTR [eax+116], 0
	jne	SHORT $LN18@deflate_rl
	jmp	$LN19@deflate_rl
$LN18@deflate_rl:

; 1878 :         }
; 1879 : 
; 1880 :         /* See how many times the previous byte repeats */
; 1881 :         s->match_length = 0;

	mov	eax, DWORD PTR _s$[ebp]
	mov	DWORD PTR [eax+96], 0

; 1882 :         if (s->lookahead >= MIN_MATCH && s->strstart > 0) {

	mov	eax, DWORD PTR _s$[ebp]
	cmp	DWORD PTR [eax+116], 3
	jb	$LN15@deflate_rl
	mov	eax, DWORD PTR _s$[ebp]
	cmp	DWORD PTR [eax+108], 0
	jbe	$LN15@deflate_rl

; 1883 :             scan = s->window + s->strstart - 1;

	mov	eax, DWORD PTR _s$[ebp]
	mov	ecx, DWORD PTR [eax+56]
	mov	edx, DWORD PTR _s$[ebp]
	mov	eax, DWORD PTR [edx+108]
	lea	ecx, DWORD PTR [ecx+eax-1]
	mov	DWORD PTR _scan$[ebp], ecx

; 1884 :             prev = *scan;

	mov	eax, DWORD PTR _scan$[ebp]
	movzx	ecx, BYTE PTR [eax]
	mov	DWORD PTR _prev$[ebp], ecx

; 1885 :             if (prev == *++scan && prev == *++scan && prev == *++scan) {

	mov	eax, DWORD PTR _scan$[ebp]
	add	eax, 1
	mov	DWORD PTR _scan$[ebp], eax
	mov	ecx, DWORD PTR _scan$[ebp]
	movzx	edx, BYTE PTR [ecx]
	cmp	DWORD PTR _prev$[ebp], edx
	jne	$LN15@deflate_rl
	mov	eax, DWORD PTR _scan$[ebp]
	add	eax, 1
	mov	DWORD PTR _scan$[ebp], eax
	mov	ecx, DWORD PTR _scan$[ebp]
	movzx	edx, BYTE PTR [ecx]
	cmp	DWORD PTR _prev$[ebp], edx
	jne	$LN15@deflate_rl
	mov	eax, DWORD PTR _scan$[ebp]
	add	eax, 1
	mov	DWORD PTR _scan$[ebp], eax
	mov	ecx, DWORD PTR _scan$[ebp]
	movzx	edx, BYTE PTR [ecx]
	cmp	DWORD PTR _prev$[ebp], edx
	jne	$LN15@deflate_rl

; 1886 :                 strend = s->window + s->strstart + MAX_MATCH;

	mov	eax, DWORD PTR _s$[ebp]
	mov	ecx, DWORD PTR [eax+56]
	mov	edx, DWORD PTR _s$[ebp]
	mov	eax, DWORD PTR [edx+108]
	lea	ecx, DWORD PTR [ecx+eax+258]
	mov	DWORD PTR _strend$[ebp], ecx
$LN12@deflate_rl:

; 1887 :                 do {
; 1888 :                 } while (prev == *++scan && prev == *++scan &&
; 1889 :                          prev == *++scan && prev == *++scan &&
; 1890 :                          prev == *++scan && prev == *++scan &&
; 1891 :                          prev == *++scan && prev == *++scan &&
; 1892 :                          scan < strend);

	mov	eax, DWORD PTR _scan$[ebp]
	add	eax, 1
	mov	DWORD PTR _scan$[ebp], eax
	mov	ecx, DWORD PTR _scan$[ebp]
	movzx	edx, BYTE PTR [ecx]
	cmp	DWORD PTR _prev$[ebp], edx
	jne	$LN11@deflate_rl
	mov	eax, DWORD PTR _scan$[ebp]
	add	eax, 1
	mov	DWORD PTR _scan$[ebp], eax
	mov	ecx, DWORD PTR _scan$[ebp]
	movzx	edx, BYTE PTR [ecx]
	cmp	DWORD PTR _prev$[ebp], edx
	jne	$LN11@deflate_rl
	mov	eax, DWORD PTR _scan$[ebp]
	add	eax, 1
	mov	DWORD PTR _scan$[ebp], eax
	mov	ecx, DWORD PTR _scan$[ebp]
	movzx	edx, BYTE PTR [ecx]
	cmp	DWORD PTR _prev$[ebp], edx
	jne	SHORT $LN11@deflate_rl
	mov	eax, DWORD PTR _scan$[ebp]
	add	eax, 1
	mov	DWORD PTR _scan$[ebp], eax
	mov	ecx, DWORD PTR _scan$[ebp]
	movzx	edx, BYTE PTR [ecx]
	cmp	DWORD PTR _prev$[ebp], edx
	jne	SHORT $LN11@deflate_rl
	mov	eax, DWORD PTR _scan$[ebp]
	add	eax, 1
	mov	DWORD PTR _scan$[ebp], eax
	mov	ecx, DWORD PTR _scan$[ebp]
	movzx	edx, BYTE PTR [ecx]
	cmp	DWORD PTR _prev$[ebp], edx
	jne	SHORT $LN11@deflate_rl
	mov	eax, DWORD PTR _scan$[ebp]
	add	eax, 1
	mov	DWORD PTR _scan$[ebp], eax
	mov	ecx, DWORD PTR _scan$[ebp]
	movzx	edx, BYTE PTR [ecx]
	cmp	DWORD PTR _prev$[ebp], edx
	jne	SHORT $LN11@deflate_rl
	mov	eax, DWORD PTR _scan$[ebp]
	add	eax, 1
	mov	DWORD PTR _scan$[ebp], eax
	mov	ecx, DWORD PTR _scan$[ebp]
	movzx	edx, BYTE PTR [ecx]
	cmp	DWORD PTR _prev$[ebp], edx
	jne	SHORT $LN11@deflate_rl
	mov	eax, DWORD PTR _scan$[ebp]
	add	eax, 1
	mov	DWORD PTR _scan$[ebp], eax
	mov	ecx, DWORD PTR _scan$[ebp]
	movzx	edx, BYTE PTR [ecx]
	cmp	DWORD PTR _prev$[ebp], edx
	jne	SHORT $LN11@deflate_rl
	mov	eax, DWORD PTR _scan$[ebp]
	cmp	eax, DWORD PTR _strend$[ebp]
	jb	$LN12@deflate_rl
$LN11@deflate_rl:

; 1893 :                 s->match_length = MAX_MATCH - (int)(strend - scan);

	mov	eax, DWORD PTR _strend$[ebp]
	sub	eax, DWORD PTR _scan$[ebp]
	mov	ecx, 258				; 00000102H
	sub	ecx, eax
	mov	edx, DWORD PTR _s$[ebp]
	mov	DWORD PTR [edx+96], ecx

; 1894 :                 if (s->match_length > s->lookahead)

	mov	eax, DWORD PTR _s$[ebp]
	mov	ecx, DWORD PTR _s$[ebp]
	mov	edx, DWORD PTR [eax+96]
	cmp	edx, DWORD PTR [ecx+116]
	jbe	SHORT $LN15@deflate_rl

; 1895 :                     s->match_length = s->lookahead;

	mov	eax, DWORD PTR _s$[ebp]
	mov	ecx, DWORD PTR _s$[ebp]
	mov	edx, DWORD PTR [ecx+116]
	mov	DWORD PTR [eax+96], edx
$LN15@deflate_rl:

; 1896 :             }
; 1897 :             Assert(scan <= s->window+(uInt)(s->window_size-1), "wild scan");
; 1898 :         }
; 1899 : 
; 1900 :         /* Emit match if have run of MIN_MATCH or longer, else emit literal */
; 1901 :         if (s->match_length >= MIN_MATCH) {

	mov	eax, DWORD PTR _s$[ebp]
	cmp	DWORD PTR [eax+96], 3
	jb	$LN8@deflate_rl

; 1902 :             check_match(s, s->strstart, s->strstart - 1, s->match_length);
; 1903 : 
; 1904 :             _tr_tally_dist(s, 1, s->match_length - MIN_MATCH, bflush);

	mov	eax, DWORD PTR _s$[ebp]
	mov	ecx, DWORD PTR [eax+96]
	sub	ecx, 3
	mov	BYTE PTR _len$81065[ebp], cl
	mov	eax, 1
	mov	WORD PTR _dist$81066[ebp], ax
	mov	eax, DWORD PTR _s$[ebp]
	mov	ecx, DWORD PTR [eax+5792]
	mov	edx, DWORD PTR _s$[ebp]
	mov	eax, DWORD PTR [edx+5796]
	mov	dx, WORD PTR _dist$81066[ebp]
	mov	WORD PTR [eax+ecx*2], dx
	mov	eax, DWORD PTR _s$[ebp]
	mov	ecx, DWORD PTR [eax+5784]
	mov	edx, DWORD PTR _s$[ebp]
	mov	eax, DWORD PTR [edx+5792]
	mov	dl, BYTE PTR _len$81065[ebp]
	mov	BYTE PTR [ecx+eax], dl
	mov	eax, DWORD PTR _s$[ebp]
	mov	ecx, DWORD PTR [eax+5792]
	add	ecx, 1
	mov	edx, DWORD PTR _s$[ebp]
	mov	DWORD PTR [edx+5792], ecx
	mov	ax, WORD PTR _dist$81066[ebp]
	sub	ax, 1
	mov	WORD PTR _dist$81066[ebp], ax
	movzx	eax, BYTE PTR _len$81065[ebp]
	movzx	ecx, BYTE PTR __length_code[eax]
	mov	edx, DWORD PTR _s$[ebp]
	mov	ax, WORD PTR [edx+ecx*4+1176]
	add	ax, 1
	movzx	ecx, BYTE PTR _len$81065[ebp]
	movzx	edx, BYTE PTR __length_code[ecx]
	mov	ecx, DWORD PTR _s$[ebp]
	mov	WORD PTR [ecx+edx*4+1176], ax
	movzx	eax, WORD PTR _dist$81066[ebp]
	cmp	eax, 256				; 00000100H
	jge	SHORT $LN23@deflate_rl
	movzx	ecx, WORD PTR _dist$81066[ebp]
	movzx	edx, BYTE PTR __dist_code[ecx]
	mov	DWORD PTR tv210[ebp], edx
	jmp	SHORT $LN24@deflate_rl
$LN23@deflate_rl:
	movzx	eax, WORD PTR _dist$81066[ebp]
	sar	eax, 7
	movzx	ecx, BYTE PTR __dist_code[eax+256]
	mov	DWORD PTR tv210[ebp], ecx
$LN24@deflate_rl:
	mov	edx, DWORD PTR tv210[ebp]
	mov	eax, DWORD PTR _s$[ebp]
	mov	cx, WORD PTR [eax+edx*4+2440]
	add	cx, 1
	mov	edx, DWORD PTR tv210[ebp]
	mov	eax, DWORD PTR _s$[ebp]
	mov	WORD PTR [eax+edx*4+2440], cx
	mov	eax, DWORD PTR _s$[ebp]
	mov	ecx, DWORD PTR [eax+5788]
	sub	ecx, 1
	mov	edx, DWORD PTR _s$[ebp]
	xor	eax, eax
	cmp	DWORD PTR [edx+5792], ecx
	sete	al
	mov	DWORD PTR _bflush$[ebp], eax

; 1905 : 
; 1906 :             s->lookahead -= s->match_length;

	mov	eax, DWORD PTR _s$[ebp]
	mov	ecx, DWORD PTR _s$[ebp]
	mov	edx, DWORD PTR [eax+116]
	sub	edx, DWORD PTR [ecx+96]
	mov	eax, DWORD PTR _s$[ebp]
	mov	DWORD PTR [eax+116], edx

; 1907 :             s->strstart += s->match_length;

	mov	eax, DWORD PTR _s$[ebp]
	mov	ecx, DWORD PTR [eax+108]
	mov	edx, DWORD PTR _s$[ebp]
	add	ecx, DWORD PTR [edx+96]
	mov	eax, DWORD PTR _s$[ebp]
	mov	DWORD PTR [eax+108], ecx

; 1908 :             s->match_length = 0;

	mov	eax, DWORD PTR _s$[ebp]
	mov	DWORD PTR [eax+96], 0

; 1909 :         } else {

	jmp	$LN7@deflate_rl
$LN8@deflate_rl:

; 1910 :             /* No match, output a literal byte */
; 1911 :             Tracevv((stderr,"%c", s->window[s->strstart]));
; 1912 :             _tr_tally_lit (s, s->window[s->strstart], bflush);

	mov	eax, DWORD PTR _s$[ebp]
	mov	ecx, DWORD PTR [eax+56]
	mov	edx, DWORD PTR _s$[ebp]
	mov	eax, DWORD PTR [edx+108]
	mov	cl, BYTE PTR [ecx+eax]
	mov	BYTE PTR _cc$81068[ebp], cl
	mov	eax, DWORD PTR _s$[ebp]
	mov	ecx, DWORD PTR [eax+5792]
	mov	edx, DWORD PTR _s$[ebp]
	mov	eax, DWORD PTR [edx+5796]
	xor	edx, edx
	mov	WORD PTR [eax+ecx*2], dx
	mov	eax, DWORD PTR _s$[ebp]
	mov	ecx, DWORD PTR [eax+5784]
	mov	edx, DWORD PTR _s$[ebp]
	mov	eax, DWORD PTR [edx+5792]
	mov	dl, BYTE PTR _cc$81068[ebp]
	mov	BYTE PTR [ecx+eax], dl
	mov	eax, DWORD PTR _s$[ebp]
	mov	ecx, DWORD PTR [eax+5792]
	add	ecx, 1
	mov	edx, DWORD PTR _s$[ebp]
	mov	DWORD PTR [edx+5792], ecx
	movzx	eax, BYTE PTR _cc$81068[ebp]
	mov	ecx, DWORD PTR _s$[ebp]
	mov	dx, WORD PTR [ecx+eax*4+148]
	add	dx, 1
	movzx	eax, BYTE PTR _cc$81068[ebp]
	mov	ecx, DWORD PTR _s$[ebp]
	mov	WORD PTR [ecx+eax*4+148], dx
	mov	eax, DWORD PTR _s$[ebp]
	mov	ecx, DWORD PTR [eax+5788]
	sub	ecx, 1
	mov	edx, DWORD PTR _s$[ebp]
	xor	eax, eax
	cmp	DWORD PTR [edx+5792], ecx
	sete	al
	mov	DWORD PTR _bflush$[ebp], eax

; 1913 :             s->lookahead--;

	mov	eax, DWORD PTR _s$[ebp]
	mov	ecx, DWORD PTR [eax+116]
	sub	ecx, 1
	mov	edx, DWORD PTR _s$[ebp]
	mov	DWORD PTR [edx+116], ecx

; 1914 :             s->strstart++;

	mov	eax, DWORD PTR _s$[ebp]
	mov	ecx, DWORD PTR [eax+108]
	add	ecx, 1
	mov	edx, DWORD PTR _s$[ebp]
	mov	DWORD PTR [edx+108], ecx
$LN7@deflate_rl:

; 1915 :         }
; 1916 :         if (bflush) FLUSH_BLOCK(s, 0);

	cmp	DWORD PTR _bflush$[ebp], 0
	je	SHORT $LN6@deflate_rl
	mov	eax, DWORD PTR _s$[ebp]
	cmp	DWORD PTR [eax+92], 0
	jl	SHORT $LN25@deflate_rl
	mov	ecx, DWORD PTR _s$[ebp]
	mov	edx, DWORD PTR [ecx+56]
	mov	eax, DWORD PTR _s$[ebp]
	add	edx, DWORD PTR [eax+92]
	mov	DWORD PTR tv284[ebp], edx
	jmp	SHORT $LN26@deflate_rl
$LN25@deflate_rl:
	mov	DWORD PTR tv284[ebp], 0
$LN26@deflate_rl:
	push	0
	mov	ecx, DWORD PTR _s$[ebp]
	mov	edx, DWORD PTR _s$[ebp]
	mov	eax, DWORD PTR [ecx+108]
	sub	eax, DWORD PTR [edx+92]
	push	eax
	mov	ecx, DWORD PTR tv284[ebp]
	push	ecx
	mov	edx, DWORD PTR _s$[ebp]
	push	edx
	call	__tr_flush_block
	add	esp, 16					; 00000010H
	mov	eax, DWORD PTR _s$[ebp]
	mov	ecx, DWORD PTR _s$[ebp]
	mov	edx, DWORD PTR [ecx+108]
	mov	DWORD PTR [eax+92], edx
	mov	eax, DWORD PTR _s$[ebp]
	mov	ecx, DWORD PTR [eax]
	push	ecx
	call	_flush_pending
	add	esp, 4
	mov	eax, DWORD PTR _s$[ebp]
	mov	ecx, DWORD PTR [eax]
	cmp	DWORD PTR [ecx+16], 0
	jne	SHORT $LN6@deflate_rl
	xor	eax, eax
	jmp	$LN21@deflate_rl
$LN6@deflate_rl:

; 1917 :     }

	jmp	$LN20@deflate_rl
$LN19@deflate_rl:

; 1918 :     s->insert = 0;

	mov	eax, DWORD PTR _s$[ebp]
	mov	DWORD PTR [eax+5812], 0

; 1919 :     if (flush == Z_FINISH) {

	cmp	DWORD PTR _flush$[ebp], 4
	jne	SHORT $LN4@deflate_rl

; 1920 :         FLUSH_BLOCK(s, 1);

	mov	eax, DWORD PTR _s$[ebp]
	cmp	DWORD PTR [eax+92], 0
	jl	SHORT $LN27@deflate_rl
	mov	ecx, DWORD PTR _s$[ebp]
	mov	edx, DWORD PTR [ecx+56]
	mov	eax, DWORD PTR _s$[ebp]
	add	edx, DWORD PTR [eax+92]
	mov	DWORD PTR tv304[ebp], edx
	jmp	SHORT $LN28@deflate_rl
$LN27@deflate_rl:
	mov	DWORD PTR tv304[ebp], 0
$LN28@deflate_rl:
	push	1
	mov	ecx, DWORD PTR _s$[ebp]
	mov	edx, DWORD PTR _s$[ebp]
	mov	eax, DWORD PTR [ecx+108]
	sub	eax, DWORD PTR [edx+92]
	push	eax
	mov	ecx, DWORD PTR tv304[ebp]
	push	ecx
	mov	edx, DWORD PTR _s$[ebp]
	push	edx
	call	__tr_flush_block
	add	esp, 16					; 00000010H
	mov	eax, DWORD PTR _s$[ebp]
	mov	ecx, DWORD PTR _s$[ebp]
	mov	edx, DWORD PTR [ecx+108]
	mov	DWORD PTR [eax+92], edx
	mov	eax, DWORD PTR _s$[ebp]
	mov	ecx, DWORD PTR [eax]
	push	ecx
	call	_flush_pending
	add	esp, 4
	mov	eax, DWORD PTR _s$[ebp]
	mov	ecx, DWORD PTR [eax]
	cmp	DWORD PTR [ecx+16], 0
	jne	SHORT $LN3@deflate_rl
	mov	eax, 2
	jmp	$LN21@deflate_rl
$LN3@deflate_rl:

; 1921 :         return finish_done;

	mov	eax, 3
	jmp	SHORT $LN21@deflate_rl
$LN4@deflate_rl:

; 1922 :     }
; 1923 :     if (s->last_lit)

	mov	eax, DWORD PTR _s$[ebp]
	cmp	DWORD PTR [eax+5792], 0
	je	SHORT $LN2@deflate_rl

; 1924 :         FLUSH_BLOCK(s, 0);

	mov	eax, DWORD PTR _s$[ebp]
	cmp	DWORD PTR [eax+92], 0
	jl	SHORT $LN29@deflate_rl
	mov	ecx, DWORD PTR _s$[ebp]
	mov	edx, DWORD PTR [ecx+56]
	mov	eax, DWORD PTR _s$[ebp]
	add	edx, DWORD PTR [eax+92]
	mov	DWORD PTR tv324[ebp], edx
	jmp	SHORT $LN30@deflate_rl
$LN29@deflate_rl:
	mov	DWORD PTR tv324[ebp], 0
$LN30@deflate_rl:
	push	0
	mov	ecx, DWORD PTR _s$[ebp]
	mov	edx, DWORD PTR _s$[ebp]
	mov	eax, DWORD PTR [ecx+108]
	sub	eax, DWORD PTR [edx+92]
	push	eax
	mov	ecx, DWORD PTR tv324[ebp]
	push	ecx
	mov	edx, DWORD PTR _s$[ebp]
	push	edx
	call	__tr_flush_block
	add	esp, 16					; 00000010H
	mov	eax, DWORD PTR _s$[ebp]
	mov	ecx, DWORD PTR _s$[ebp]
	mov	edx, DWORD PTR [ecx+108]
	mov	DWORD PTR [eax+92], edx
	mov	eax, DWORD PTR _s$[ebp]
	mov	ecx, DWORD PTR [eax]
	push	ecx
	call	_flush_pending
	add	esp, 4
	mov	eax, DWORD PTR _s$[ebp]
	mov	ecx, DWORD PTR [eax]
	cmp	DWORD PTR [ecx+16], 0
	jne	SHORT $LN2@deflate_rl
	xor	eax, eax
	jmp	SHORT $LN21@deflate_rl
$LN2@deflate_rl:

; 1925 :     return block_done;

	mov	eax, 1
$LN21@deflate_rl:

; 1926 : }

	pop	edi
	pop	esi
	pop	ebx
	mov	esp, ebp
	pop	ebp
	ret	0
_deflate_rle ENDP
; Function compile flags: /Odtp /ZI
_TEXT	ENDS
;	COMDAT _deflate_huff
_TEXT	SEGMENT
tv193 = -76						; size = 4
tv173 = -76						; size = 4
tv153 = -76						; size = 4
_cc$81101 = -5						; size = 1
_bflush$ = -4						; size = 4
_s$ = 8							; size = 4
_flush$ = 12						; size = 4
_deflate_huff PROC					; COMDAT

; 1935 : {

	push	ebp
	mov	ebp, esp
	sub	esp, 76					; 0000004cH
	push	ebx
	push	esi
	push	edi
$LN11@deflate_hu:

; 1936 :     int bflush;             /* set if current block must be flushed */
; 1937 : 
; 1938 :     for (;;) {
; 1939 :         /* Make sure that we have a literal to write. */
; 1940 :         if (s->lookahead == 0) {

	mov	eax, DWORD PTR _s$[ebp]
	cmp	DWORD PTR [eax+116], 0
	jne	SHORT $LN9@deflate_hu

; 1941 :             fill_window(s);

	mov	eax, DWORD PTR _s$[ebp]
	push	eax
	call	_fill_window
	add	esp, 4

; 1942 :             if (s->lookahead == 0) {

	mov	eax, DWORD PTR _s$[ebp]
	cmp	DWORD PTR [eax+116], 0
	jne	SHORT $LN9@deflate_hu

; 1943 :                 if (flush == Z_NO_FLUSH)

	cmp	DWORD PTR _flush$[ebp], 0
	jne	SHORT $LN7@deflate_hu

; 1944 :                     return need_more;

	xor	eax, eax
	jmp	$LN12@deflate_hu
$LN7@deflate_hu:

; 1945 :                 break;      /* flush the current block */

	jmp	$LN10@deflate_hu
$LN9@deflate_hu:

; 1946 :             }
; 1947 :         }
; 1948 : 
; 1949 :         /* Output a literal byte */
; 1950 :         s->match_length = 0;

	mov	eax, DWORD PTR _s$[ebp]
	mov	DWORD PTR [eax+96], 0

; 1951 :         Tracevv((stderr,"%c", s->window[s->strstart]));
; 1952 :         _tr_tally_lit (s, s->window[s->strstart], bflush);

	mov	eax, DWORD PTR _s$[ebp]
	mov	ecx, DWORD PTR [eax+56]
	mov	edx, DWORD PTR _s$[ebp]
	mov	eax, DWORD PTR [edx+108]
	mov	cl, BYTE PTR [ecx+eax]
	mov	BYTE PTR _cc$81101[ebp], cl
	mov	eax, DWORD PTR _s$[ebp]
	mov	ecx, DWORD PTR [eax+5792]
	mov	edx, DWORD PTR _s$[ebp]
	mov	eax, DWORD PTR [edx+5796]
	xor	edx, edx
	mov	WORD PTR [eax+ecx*2], dx
	mov	eax, DWORD PTR _s$[ebp]
	mov	ecx, DWORD PTR [eax+5784]
	mov	edx, DWORD PTR _s$[ebp]
	mov	eax, DWORD PTR [edx+5792]
	mov	dl, BYTE PTR _cc$81101[ebp]
	mov	BYTE PTR [ecx+eax], dl
	mov	eax, DWORD PTR _s$[ebp]
	mov	ecx, DWORD PTR [eax+5792]
	add	ecx, 1
	mov	edx, DWORD PTR _s$[ebp]
	mov	DWORD PTR [edx+5792], ecx
	movzx	eax, BYTE PTR _cc$81101[ebp]
	mov	ecx, DWORD PTR _s$[ebp]
	mov	dx, WORD PTR [ecx+eax*4+148]
	add	dx, 1
	movzx	eax, BYTE PTR _cc$81101[ebp]
	mov	ecx, DWORD PTR _s$[ebp]
	mov	WORD PTR [ecx+eax*4+148], dx
	mov	eax, DWORD PTR _s$[ebp]
	mov	ecx, DWORD PTR [eax+5788]
	sub	ecx, 1
	mov	edx, DWORD PTR _s$[ebp]
	xor	eax, eax
	cmp	DWORD PTR [edx+5792], ecx
	sete	al
	mov	DWORD PTR _bflush$[ebp], eax

; 1953 :         s->lookahead--;

	mov	eax, DWORD PTR _s$[ebp]
	mov	ecx, DWORD PTR [eax+116]
	sub	ecx, 1
	mov	edx, DWORD PTR _s$[ebp]
	mov	DWORD PTR [edx+116], ecx

; 1954 :         s->strstart++;

	mov	eax, DWORD PTR _s$[ebp]
	mov	ecx, DWORD PTR [eax+108]
	add	ecx, 1
	mov	edx, DWORD PTR _s$[ebp]
	mov	DWORD PTR [edx+108], ecx

; 1955 :         if (bflush) FLUSH_BLOCK(s, 0);

	cmp	DWORD PTR _bflush$[ebp], 0
	je	SHORT $LN6@deflate_hu
	mov	eax, DWORD PTR _s$[ebp]
	cmp	DWORD PTR [eax+92], 0
	jl	SHORT $LN14@deflate_hu
	mov	ecx, DWORD PTR _s$[ebp]
	mov	edx, DWORD PTR [ecx+56]
	mov	eax, DWORD PTR _s$[ebp]
	add	edx, DWORD PTR [eax+92]
	mov	DWORD PTR tv153[ebp], edx
	jmp	SHORT $LN15@deflate_hu
$LN14@deflate_hu:
	mov	DWORD PTR tv153[ebp], 0
$LN15@deflate_hu:
	push	0
	mov	ecx, DWORD PTR _s$[ebp]
	mov	edx, DWORD PTR _s$[ebp]
	mov	eax, DWORD PTR [ecx+108]
	sub	eax, DWORD PTR [edx+92]
	push	eax
	mov	ecx, DWORD PTR tv153[ebp]
	push	ecx
	mov	edx, DWORD PTR _s$[ebp]
	push	edx
	call	__tr_flush_block
	add	esp, 16					; 00000010H
	mov	eax, DWORD PTR _s$[ebp]
	mov	ecx, DWORD PTR _s$[ebp]
	mov	edx, DWORD PTR [ecx+108]
	mov	DWORD PTR [eax+92], edx
	mov	eax, DWORD PTR _s$[ebp]
	mov	ecx, DWORD PTR [eax]
	push	ecx
	call	_flush_pending
	add	esp, 4
	mov	eax, DWORD PTR _s$[ebp]
	mov	ecx, DWORD PTR [eax]
	cmp	DWORD PTR [ecx+16], 0
	jne	SHORT $LN6@deflate_hu
	xor	eax, eax
	jmp	$LN12@deflate_hu
$LN6@deflate_hu:

; 1956 :     }

	jmp	$LN11@deflate_hu
$LN10@deflate_hu:

; 1957 :     s->insert = 0;

	mov	eax, DWORD PTR _s$[ebp]
	mov	DWORD PTR [eax+5812], 0

; 1958 :     if (flush == Z_FINISH) {

	cmp	DWORD PTR _flush$[ebp], 4
	jne	SHORT $LN4@deflate_hu

; 1959 :         FLUSH_BLOCK(s, 1);

	mov	eax, DWORD PTR _s$[ebp]
	cmp	DWORD PTR [eax+92], 0
	jl	SHORT $LN16@deflate_hu
	mov	ecx, DWORD PTR _s$[ebp]
	mov	edx, DWORD PTR [ecx+56]
	mov	eax, DWORD PTR _s$[ebp]
	add	edx, DWORD PTR [eax+92]
	mov	DWORD PTR tv173[ebp], edx
	jmp	SHORT $LN17@deflate_hu
$LN16@deflate_hu:
	mov	DWORD PTR tv173[ebp], 0
$LN17@deflate_hu:
	push	1
	mov	ecx, DWORD PTR _s$[ebp]
	mov	edx, DWORD PTR _s$[ebp]
	mov	eax, DWORD PTR [ecx+108]
	sub	eax, DWORD PTR [edx+92]
	push	eax
	mov	ecx, DWORD PTR tv173[ebp]
	push	ecx
	mov	edx, DWORD PTR _s$[ebp]
	push	edx
	call	__tr_flush_block
	add	esp, 16					; 00000010H
	mov	eax, DWORD PTR _s$[ebp]
	mov	ecx, DWORD PTR _s$[ebp]
	mov	edx, DWORD PTR [ecx+108]
	mov	DWORD PTR [eax+92], edx
	mov	eax, DWORD PTR _s$[ebp]
	mov	ecx, DWORD PTR [eax]
	push	ecx
	call	_flush_pending
	add	esp, 4
	mov	eax, DWORD PTR _s$[ebp]
	mov	ecx, DWORD PTR [eax]
	cmp	DWORD PTR [ecx+16], 0
	jne	SHORT $LN3@deflate_hu
	mov	eax, 2
	jmp	$LN12@deflate_hu
$LN3@deflate_hu:

; 1960 :         return finish_done;

	mov	eax, 3
	jmp	SHORT $LN12@deflate_hu
$LN4@deflate_hu:

; 1961 :     }
; 1962 :     if (s->last_lit)

	mov	eax, DWORD PTR _s$[ebp]
	cmp	DWORD PTR [eax+5792], 0
	je	SHORT $LN2@deflate_hu

; 1963 :         FLUSH_BLOCK(s, 0);

	mov	eax, DWORD PTR _s$[ebp]
	cmp	DWORD PTR [eax+92], 0
	jl	SHORT $LN18@deflate_hu
	mov	ecx, DWORD PTR _s$[ebp]
	mov	edx, DWORD PTR [ecx+56]
	mov	eax, DWORD PTR _s$[ebp]
	add	edx, DWORD PTR [eax+92]
	mov	DWORD PTR tv193[ebp], edx
	jmp	SHORT $LN19@deflate_hu
$LN18@deflate_hu:
	mov	DWORD PTR tv193[ebp], 0
$LN19@deflate_hu:
	push	0
	mov	ecx, DWORD PTR _s$[ebp]
	mov	edx, DWORD PTR _s$[ebp]
	mov	eax, DWORD PTR [ecx+108]
	sub	eax, DWORD PTR [edx+92]
	push	eax
	mov	ecx, DWORD PTR tv193[ebp]
	push	ecx
	mov	edx, DWORD PTR _s$[ebp]
	push	edx
	call	__tr_flush_block
	add	esp, 16					; 00000010H
	mov	eax, DWORD PTR _s$[ebp]
	mov	ecx, DWORD PTR _s$[ebp]
	mov	edx, DWORD PTR [ecx+108]
	mov	DWORD PTR [eax+92], edx
	mov	eax, DWORD PTR _s$[ebp]
	mov	ecx, DWORD PTR [eax]
	push	ecx
	call	_flush_pending
	add	esp, 4
	mov	eax, DWORD PTR _s$[ebp]
	mov	ecx, DWORD PTR [eax]
	cmp	DWORD PTR [ecx+16], 0
	jne	SHORT $LN2@deflate_hu
	xor	eax, eax
	jmp	SHORT $LN12@deflate_hu
$LN2@deflate_hu:

; 1964 :     return block_done;

	mov	eax, 1
$LN12@deflate_hu:

; 1965 : }

	pop	edi
	pop	esi
	pop	ebx
	mov	esp, ebp
	pop	ebp
	ret	0
_deflate_huff ENDP
_TEXT	ENDS
END
